   1               		.file	"queue.c"
   2               	__SREG__ = 0x3f
   3               	__SP_H__ = 0x3e
   4               	__SP_L__ = 0x3d
   5               	__CCP__  = 0x34
   6               	__tmp_reg__ = 0
   7               	__zero_reg__ = 1
  15               	.Ltext0:
  16               	.global	uxQueueMessagesWaiting
  18               	uxQueueMessagesWaiting:
  19               	.LFB16:
  20               	.LM1:
  21               	.LVL0:
  22               	/* prologue: function */
  23               	/* frame size = 0 */
  24 0000 FC01      		movw r30,r24
  25               	.LM2:
  26               	/* #APP */
  27               	 ;  1987 "FreeRTOS/Source/queue.c" 1
  28 0002 0FB6      		in		__tmp_reg__, __SREG__
  29               	 ;  0 "" 2
  30               	 ;  1987 "FreeRTOS/Source/queue.c" 1
  31 0004 F894      		cli
  32               	 ;  0 "" 2
  33               	 ;  1987 "FreeRTOS/Source/queue.c" 1
  34 0006 0F92      		push	__tmp_reg__
  35               	 ;  0 "" 2
  36               	.LM3:
  37               	/* #NOAPP */
  38 0008 828D      		ldd r24,Z+26
  39               	.LVL1:
  40               	.LM4:
  41               	/* #APP */
  42               	 ;  1991 "FreeRTOS/Source/queue.c" 1
  43 000a 0F90      		pop		__tmp_reg__
  44               	 ;  0 "" 2
  45               	 ;  1991 "FreeRTOS/Source/queue.c" 1
  46 000c 0FBE      		out		__SREG__, __tmp_reg__
  47               	 ;  0 "" 2
  48               	.LVL2:
  49               	/* epilogue start */
  50               	.LM5:
  51               	/* #NOAPP */
  52 000e 0895      		ret
  53               	.LFE16:
  55               	.global	uxQueueSpacesAvailable
  57               	uxQueueSpacesAvailable:
  58               	.LFB17:
  59               	.LM6:
  60               	.LVL3:
  61               	/* prologue: function */
  62               	/* frame size = 0 */
  63 0010 FC01      		movw r30,r24
  64               	.LM7:
  65               	/* #APP */
  66               	 ;  2004 "FreeRTOS/Source/queue.c" 1
  67 0012 0FB6      		in		__tmp_reg__, __SREG__
  68               	 ;  0 "" 2
  69               	 ;  2004 "FreeRTOS/Source/queue.c" 1
  70 0014 F894      		cli
  71               	 ;  0 "" 2
  72               	 ;  2004 "FreeRTOS/Source/queue.c" 1
  73 0016 0F92      		push	__tmp_reg__
  74               	 ;  0 "" 2
  75               	.LM8:
  76               	/* #NOAPP */
  77 0018 928D      		ldd r25,Z+26
  78               	.LM9:
  79               	/* #APP */
  80               	 ;  2008 "FreeRTOS/Source/queue.c" 1
  81 001a 0F90      		pop		__tmp_reg__
  82               	 ;  0 "" 2
  83               	 ;  2008 "FreeRTOS/Source/queue.c" 1
  84 001c 0FBE      		out		__SREG__, __tmp_reg__
  85               	 ;  0 "" 2
  86               	/* #NOAPP */
  87 001e 838D      		ldd r24,Z+27
  88               	.LVL4:
  89               	.LM10:
  90 0020 891B      		sub r24,r25
  91               	/* epilogue start */
  92 0022 0895      		ret
  93               	.LFE17:
  95               	.global	uxQueueMessagesWaitingFromISR
  97               	uxQueueMessagesWaitingFromISR:
  98               	.LFB18:
  99               	.LM11:
 100               	.LVL5:
 101               	/* prologue: function */
 102               	/* frame size = 0 */
 103 0024 FC01      		movw r30,r24
 104               	.LM12:
 105 0026 828D      		ldd r24,Z+26
 106               	.LVL6:
 107               	.LVL7:
 108               	/* epilogue start */
 109               	.LM13:
 110 0028 0895      		ret
 111               	.LFE18:
 113               	.global	xQueueIsQueueEmptyFromISR
 115               	xQueueIsQueueEmptyFromISR:
 116               	.LFB25:
 117               	.LM14:
 118               	.LVL8:
 119               	/* prologue: function */
 120               	/* frame size = 0 */
 121 002a FC01      		movw r30,r24
 122               	.LM15:
 123 002c 828D      		ldd r24,Z+26
 124               	.LVL9:
 125 002e 90E0      		ldi r25,lo8(0)
 126 0030 8823      		tst r24
 127 0032 01F4      		brne .L8
 128 0034 91E0      		ldi r25,lo8(1)
 129               	.L8:
 130               	.LM16:
 131 0036 892F      		mov r24,r25
 132               	/* epilogue start */
 133 0038 0895      		ret
 134               	.LFE25:
 136               	.global	xQueueIsQueueFullFromISR
 138               	xQueueIsQueueFullFromISR:
 139               	.LFB27:
 140               	.LM17:
 141               	.LVL10:
 142               	/* prologue: function */
 143               	/* frame size = 0 */
 144 003a FC01      		movw r30,r24
 145               	.LM18:
 146 003c 928D      		ldd r25,Z+26
 147 003e 20E0      		ldi r18,lo8(0)
 148 0040 838D      		ldd r24,Z+27
 149               	.LVL11:
 150 0042 9817      		cp r25,r24
 151 0044 01F4      		brne .L11
 152 0046 21E0      		ldi r18,lo8(1)
 153               	.L11:
 154               	.LM19:
 155 0048 822F      		mov r24,r18
 156               	/* epilogue start */
 157 004a 0895      		ret
 158               	.LFE27:
 161               	prvCopyDataFromQueue:
 162               	.LFB22:
 163               	.LM20:
 164               	.LVL12:
 165               	/* prologue: function */
 166               	/* frame size = 0 */
 167 004c FC01      		movw r30,r24
 168 004e 562F      		mov r21,r22
 169 0050 A72F      		mov r26,r23
 170               	.LVL13:
 171               	.LM21:
 172 0052 248D      		ldd r18,Z+28
 173 0054 2223      		tst r18
 174 0056 01F0      		breq .L17
 175               	.LVL14:
 176               	.LM22:
 177 0058 8681      		ldd r24,Z+6
 178 005a 9781      		ldd r25,Z+7
 179 005c 820F      		add r24,r18
 180 005e 911D      		adc r25,__zero_reg__
 181 0060 9783      		std Z+7,r25
 182 0062 8683      		std Z+6,r24
 183               	.LM23:
 184 0064 2481      		ldd r18,Z+4
 185 0066 3581      		ldd r19,Z+5
 186 0068 8217      		cp r24,r18
 187 006a 9307      		cpc r25,r19
 188 006c 00F0      		brlo .L15
 189               	.LM24:
 190 006e 8081      		ld r24,Z
 191 0070 9181      		ldd r25,Z+1
 192 0072 9783      		std Z+7,r25
 193 0074 8683      		std Z+6,r24
 194               	.L15:
 195               	.LM25:
 196 0076 448D      		ldd r20,Z+28
 197 0078 6681      		ldd r22,Z+6
 198 007a 7781      		ldd r23,Z+7
 199 007c 852F      		mov r24,r21
 200 007e 9A2F      		mov r25,r26
 201 0080 50E0      		ldi r21,lo8(0)
 202               	.LVL15:
 203 0082 0E94 0000 		call memcpy
 204               	.LVL16:
 205               	.L17:
 206 0086 0895      		ret
 207               	.LFE22:
 209               	.global	xQueuePeekFromISR
 211               	xQueuePeekFromISR:
 212               	.LFB15:
 213               	.LM26:
 214               	.LVL17:
 215 0088 0F93      		push r16
 216 008a 1F93      		push r17
 217 008c CF93      		push r28
 218 008e DF93      		push r29
 219               	/* prologue: function */
 220               	/* frame size = 0 */
 221 0090 EC01      		movw r28,r24
 222               	.LM27:
 223 0092 8A8D      		ldd r24,Y+26
 224               	.LVL18:
 225 0094 8823      		tst r24
 226 0096 01F0      		breq .L20
 227               	.LM28:
 228 0098 0E81      		ldd r16,Y+6
 229 009a 1F81      		ldd r17,Y+7
 230               	.LVL19:
 231               	.LM29:
 232 009c CE01      		movw r24,r28
 233 009e 0E94 0000 		call prvCopyDataFromQueue
 234               	.LVL20:
 235               	.LM30:
 236 00a2 1F83      		std Y+7,r17
 237 00a4 0E83      		std Y+6,r16
 238 00a6 81E0      		ldi r24,lo8(1)
 239               	.LVL21:
 240               	.L20:
 241               	.LVL22:
 242               	/* epilogue start */
 243               	.LM31:
 244 00a8 DF91      		pop r29
 245 00aa CF91      		pop r28
 246               	.LVL23:
 247 00ac 1F91      		pop r17
 248 00ae 0F91      		pop r16
 249               	.LVL24:
 250 00b0 0895      		ret
 251               	.LFE15:
 253               	.global	xQueueCRReceiveFromISR
 255               	xQueueCRReceiveFromISR:
 256               	.LFB31:
 257               	.LM32:
 258               	.LVL25:
 259 00b2 0F93      		push r16
 260 00b4 1F93      		push r17
 261 00b6 CF93      		push r28
 262 00b8 DF93      		push r29
 263               	/* prologue: function */
 264               	/* frame size = 0 */
 265 00ba EC01      		movw r28,r24
 266 00bc FB01      		movw r30,r22
 267               	.LVL26:
 268 00be 8A01      		movw r16,r20
 269               	.LM33:
 270 00c0 8A8D      		ldd r24,Y+26
 271               	.LVL27:
 272 00c2 8823      		tst r24
 273 00c4 01F0      		breq .L24
 274               	.LVL28:
 275               	.LM34:
 276 00c6 8C8D      		ldd r24,Y+28
 277 00c8 2E81      		ldd r18,Y+6
 278 00ca 3F81      		ldd r19,Y+7
 279 00cc 280F      		add r18,r24
 280 00ce 311D      		adc r19,__zero_reg__
 281 00d0 3F83      		std Y+7,r19
 282 00d2 2E83      		std Y+6,r18
 283               	.LM35:
 284 00d4 8C81      		ldd r24,Y+4
 285 00d6 9D81      		ldd r25,Y+5
 286 00d8 2817      		cp r18,r24
 287 00da 3907      		cpc r19,r25
 288 00dc 00F0      		brlo .L25
 289               	.LM36:
 290 00de 8881      		ld r24,Y
 291 00e0 9981      		ldd r25,Y+1
 292 00e2 9F83      		std Y+7,r25
 293 00e4 8E83      		std Y+6,r24
 294               	.L25:
 295               	.LM37:
 296 00e6 8A8D      		ldd r24,Y+26
 297 00e8 8150      		subi r24,lo8(-(-1))
 298 00ea 8A8F      		std Y+26,r24
 299               	.LM38:
 300 00ec 4C8D      		ldd r20,Y+28
 301 00ee 6E81      		ldd r22,Y+6
 302 00f0 7F81      		ldd r23,Y+7
 303 00f2 CF01      		movw r24,r30
 304 00f4 50E0      		ldi r21,lo8(0)
 305 00f6 0E94 0000 		call memcpy
 306               	.LM39:
 307 00fa F801      		movw r30,r16
 308 00fc 8081      		ld r24,Z
 309 00fe 8823      		tst r24
 310 0100 01F4      		brne .L27
 311               	.LM40:
 312 0102 8885      		ldd r24,Y+8
 313 0104 8823      		tst r24
 314 0106 01F0      		breq .L27
 315               	.LM41:
 316 0108 CE01      		movw r24,r28
 317 010a 0896      		adiw r24,8
 318 010c 0E94 0000 		call xCoRoutineRemoveFromEventList
 319 0110 8823      		tst r24
 320 0112 01F0      		breq .L27
 321               	.LM42:
 322 0114 81E0      		ldi r24,lo8(1)
 323 0116 F801      		movw r30,r16
 324 0118 8083      		st Z,r24
 325 011a 00C0      		rjmp .L24
 326               	.L27:
 327 011c 81E0      		ldi r24,lo8(1)
 328               	.LVL29:
 329               	.L24:
 330               	.LVL30:
 331               	/* epilogue start */
 332               	.LM43:
 333 011e DF91      		pop r29
 334 0120 CF91      		pop r28
 335               	.LVL31:
 336 0122 1F91      		pop r17
 337 0124 0F91      		pop r16
 338               	.LVL32:
 339 0126 0895      		ret
 340               	.LFE31:
 343               	prvCopyDataToQueue:
 344               	.LFB21:
 345               	.LM44:
 346               	.LVL33:
 347 0128 0F93      		push r16
 348 012a 1F93      		push r17
 349 012c CF93      		push r28
 350 012e DF93      		push r29
 351               	/* prologue: function */
 352               	/* frame size = 0 */
 353 0130 EC01      		movw r28,r24
 354 0132 042F      		mov r16,r20
 355               	.LM45:
 356 0134 1A8D      		ldd r17,Y+26
 357               	.LVL34:
 358               	.LM46:
 359 0136 4C8D      		ldd r20,Y+28
 360               	.LVL35:
 361 0138 4423      		tst r20
 362 013a 01F4      		brne .L30
 363               	.LVL36:
 364               	.LM47:
 365 013c 8881      		ld r24,Y
 366 013e 9981      		ldd r25,Y+1
 367 0140 892B      		or r24,r25
 368 0142 01F0      		breq .+2
 369 0144 00C0      		rjmp .L31
 370               	.LM48:
 371 0146 8C81      		ldd r24,Y+4
 372 0148 9D81      		ldd r25,Y+5
 373 014a 0E94 0000 		call xTaskPriorityDisinherit
 374               	.LVL37:
 375               	.LM49:
 376 014e 1D82      		std Y+5,__zero_reg__
 377 0150 1C82      		std Y+4,__zero_reg__
 378 0152 00C0      		rjmp .L32
 379               	.LVL38:
 380               	.L30:
 381               	.LM50:
 382 0154 0023      		tst r16
 383 0156 01F4      		brne .L33
 384               	.LM51:
 385 0158 8A81      		ldd r24,Y+2
 386 015a 9B81      		ldd r25,Y+3
 387 015c 50E0      		ldi r21,lo8(0)
 388 015e 0E94 0000 		call memcpy
 389               	.LVL39:
 390               	.LM52:
 391 0162 8C8D      		ldd r24,Y+28
 392 0164 2A81      		ldd r18,Y+2
 393 0166 3B81      		ldd r19,Y+3
 394 0168 280F      		add r18,r24
 395 016a 311D      		adc r19,__zero_reg__
 396 016c 3B83      		std Y+3,r19
 397 016e 2A83      		std Y+2,r18
 398               	.LM53:
 399 0170 8C81      		ldd r24,Y+4
 400 0172 9D81      		ldd r25,Y+5
 401 0174 2817      		cp r18,r24
 402 0176 3907      		cpc r19,r25
 403 0178 00F0      		brlo .L31
 404               	.LM54:
 405 017a 8881      		ld r24,Y
 406 017c 9981      		ldd r25,Y+1
 407 017e 9B83      		std Y+3,r25
 408 0180 8A83      		std Y+2,r24
 409 0182 00C0      		rjmp .L31
 410               	.LVL40:
 411               	.L33:
 412               	.LM55:
 413 0184 8E81      		ldd r24,Y+6
 414 0186 9F81      		ldd r25,Y+7
 415 0188 50E0      		ldi r21,lo8(0)
 416 018a 0E94 0000 		call memcpy
 417               	.LVL41:
 418               	.LM56:
 419 018e 8C8D      		ldd r24,Y+28
 420 0190 90E0      		ldi r25,lo8(0)
 421 0192 4427      		clr r20
 422 0194 5527      		clr r21
 423 0196 481B      		sub r20,r24
 424 0198 590B      		sbc r21,r25
 425 019a 8E81      		ldd r24,Y+6
 426 019c 9F81      		ldd r25,Y+7
 427 019e 840F      		add r24,r20
 428 01a0 951F      		adc r25,r21
 429 01a2 9F83      		std Y+7,r25
 430 01a4 8E83      		std Y+6,r24
 431               	.LM57:
 432 01a6 2881      		ld r18,Y
 433 01a8 3981      		ldd r19,Y+1
 434 01aa 8217      		cp r24,r18
 435 01ac 9307      		cpc r25,r19
 436 01ae 00F4      		brsh .L36
 437               	.LM58:
 438 01b0 8C81      		ldd r24,Y+4
 439 01b2 9D81      		ldd r25,Y+5
 440 01b4 840F      		add r24,r20
 441 01b6 951F      		adc r25,r21
 442 01b8 9F83      		std Y+7,r25
 443 01ba 8E83      		std Y+6,r24
 444               	.L36:
 445               	.LM59:
 446 01bc 0230      		cpi r16,lo8(2)
 447 01be 01F4      		brne .L31
 448               	.LM60:
 449 01c0 1111      		cpse r17,__zero_reg__
 450               	.LM61:
 451 01c2 1150      		subi r17,lo8(-(-1))
 452               	.LVL42:
 453               	.L31:
 454 01c4 80E0      		ldi r24,lo8(0)
 455               	.LVL43:
 456               	.L32:
 457               	.LM62:
 458 01c6 1F5F      		subi r17,lo8(-(1))
 459 01c8 1A8F      		std Y+26,r17
 460               	.LVL44:
 461               	/* epilogue start */
 462               	.LM63:
 463 01ca DF91      		pop r29
 464 01cc CF91      		pop r28
 465               	.LVL45:
 466 01ce 1F91      		pop r17
 467               	.LVL46:
 468 01d0 0F91      		pop r16
 469               	.LVL47:
 470 01d2 0895      		ret
 471               	.LFE21:
 473               	.global	xQueueCRSendFromISR
 475               	xQueueCRSendFromISR:
 476               	.LFB30:
 477               	.LM64:
 478               	.LVL48:
 479 01d4 1F93      		push r17
 480 01d6 CF93      		push r28
 481 01d8 DF93      		push r29
 482               	/* prologue: function */
 483               	/* frame size = 0 */
 484 01da EC01      		movw r28,r24
 485 01dc 142F      		mov r17,r20
 486               	.LM65:
 487 01de 9A8D      		ldd r25,Y+26
 488 01e0 8B8D      		ldd r24,Y+27
 489               	.LVL49:
 490 01e2 9817      		cp r25,r24
 491 01e4 00F4      		brsh .L39
 492               	.LVL50:
 493               	.LM66:
 494 01e6 CE01      		movw r24,r28
 495 01e8 40E0      		ldi r20,lo8(0)
 496 01ea 0E94 0000 		call prvCopyDataToQueue
 497               	.LVL51:
 498               	.LM67:
 499 01ee 1123      		tst r17
 500 01f0 01F4      		brne .L39
 501               	.LM68:
 502 01f2 8989      		ldd r24,Y+17
 503 01f4 8823      		tst r24
 504 01f6 01F0      		breq .L39
 505               	.LM69:
 506 01f8 CE01      		movw r24,r28
 507 01fa 4196      		adiw r24,17
 508 01fc 0E94 0000 		call xCoRoutineRemoveFromEventList
 509 0200 482F      		mov r20,r24
 510 0202 8111      		cpse r24,__zero_reg__
 511 0204 41E0      		ldi r20,lo8(1)
 512               	.L40:
 513 0206 142F      		mov r17,r20
 514               	.LVL52:
 515               	.L39:
 516               	.LM70:
 517 0208 812F      		mov r24,r17
 518               	/* epilogue start */
 519 020a DF91      		pop r29
 520 020c CF91      		pop r28
 521               	.LVL53:
 522 020e 1F91      		pop r17
 523               	.LVL54:
 524 0210 0895      		ret
 525               	.LFE30:
 527               	.global	xQueueCRReceive
 529               	xQueueCRReceive:
 530               	.LFB29:
 531               	.LM71:
 532               	.LVL55:
 533 0212 CF93      		push r28
 534 0214 DF93      		push r29
 535               	/* prologue: function */
 536               	/* frame size = 0 */
 537 0216 EC01      		movw r28,r24
 538 0218 FB01      		movw r30,r22
 539               	.LVL56:
 540               	.LM72:
 541               	/* #APP */
 542               	 ;  2523 "FreeRTOS/Source/queue.c" 1
 543 021a F894      		cli
 544               	 ;  0 "" 2
 545               	.LM73:
 546               	/* #NOAPP */
 547 021c 8A8D      		ldd r24,Y+26
 548               	.LVL57:
 549 021e 8823      		tst r24
 550 0220 01F4      		brne .L43
 551               	.LM74:
 552 0222 4115      		cp r20,__zero_reg__
 553 0224 5105      		cpc r21,__zero_reg__
 554 0226 01F0      		breq .L44
 555               	.LM75:
 556 0228 6196      		adiw r28,17
 557 022a CA01      		movw r24,r20
 558 022c BE01      		movw r22,r28
 559 022e 0E94 0000 		call vCoRoutineAddToDelayedList
 560               	.LVL58:
 561               	.LM76:
 562               	/* #APP */
 563               	 ;  2534 "FreeRTOS/Source/queue.c" 1
 564 0232 7894      		sei
 565               	 ;  0 "" 2
 566               	/* #NOAPP */
 567 0234 8CEF      		ldi r24,lo8(-4)
 568               	.LVL59:
 569 0236 00C0      		rjmp .L45
 570               	.LVL60:
 571               	.L44:
 572               	.LM77:
 573               	/* #APP */
 574               	 ;  2539 "FreeRTOS/Source/queue.c" 1
 575 0238 7894      		sei
 576               	 ;  0 "" 2
 577               	/* #NOAPP */
 578 023a 80E0      		ldi r24,lo8(0)
 579               	.LVL61:
 580 023c 00C0      		rjmp .L45
 581               	.LVL62:
 582               	.L43:
 583               	.LM78:
 584               	/* #APP */
 585               	 ;  2548 "FreeRTOS/Source/queue.c" 1
 586 023e 7894      		sei
 587               	 ;  0 "" 2
 588               	.LM79:
 589               	 ;  2550 "FreeRTOS/Source/queue.c" 1
 590 0240 F894      		cli
 591               	 ;  0 "" 2
 592               	.LM80:
 593               	/* #NOAPP */
 594 0242 8A8D      		ldd r24,Y+26
 595 0244 8823      		tst r24
 596 0246 01F0      		breq .L47
 597               	.LM81:
 598 0248 8C8D      		ldd r24,Y+28
 599 024a 2E81      		ldd r18,Y+6
 600 024c 3F81      		ldd r19,Y+7
 601 024e 280F      		add r18,r24
 602 0250 311D      		adc r19,__zero_reg__
 603 0252 3F83      		std Y+7,r19
 604 0254 2E83      		std Y+6,r18
 605               	.LM82:
 606 0256 8C81      		ldd r24,Y+4
 607 0258 9D81      		ldd r25,Y+5
 608 025a 2817      		cp r18,r24
 609 025c 3907      		cpc r19,r25
 610 025e 00F0      		brlo .L48
 611               	.LM83:
 612 0260 8881      		ld r24,Y
 613 0262 9981      		ldd r25,Y+1
 614 0264 9F83      		std Y+7,r25
 615 0266 8E83      		std Y+6,r24
 616               	.L48:
 617               	.LM84:
 618 0268 8A8D      		ldd r24,Y+26
 619 026a 8150      		subi r24,lo8(-(-1))
 620 026c 8A8F      		std Y+26,r24
 621               	.LM85:
 622 026e 4C8D      		ldd r20,Y+28
 623               	.LVL63:
 624 0270 6E81      		ldd r22,Y+6
 625 0272 7F81      		ldd r23,Y+7
 626 0274 CF01      		movw r24,r30
 627 0276 50E0      		ldi r21,lo8(0)
 628 0278 0E94 0000 		call memcpy
 629               	.LM86:
 630 027c 8885      		ldd r24,Y+8
 631 027e 8823      		tst r24
 632 0280 01F0      		breq .L50
 633               	.LM87:
 634 0282 CE01      		movw r24,r28
 635 0284 0896      		adiw r24,8
 636 0286 0E94 0000 		call xCoRoutineRemoveFromEventList
 637 028a 8823      		tst r24
 638 028c 01F0      		breq .L50
 639 028e 8BEF      		ldi r24,lo8(-5)
 640               	.LVL64:
 641 0290 00C0      		rjmp .L47
 642               	.LVL65:
 643               	.L50:
 644 0292 81E0      		ldi r24,lo8(1)
 645               	.LVL66:
 646               	.L47:
 647               	.LM88:
 648               	/* #APP */
 649               	 ;  2597 "FreeRTOS/Source/queue.c" 1
 650 0294 7894      		sei
 651               	 ;  0 "" 2
 652               	/* #NOAPP */
 653               	.L45:
 654               	.LVL67:
 655               	/* epilogue start */
 656               	.LM89:
 657 0296 DF91      		pop r29
 658 0298 CF91      		pop r28
 659               	.LVL68:
 660 029a 0895      		ret
 661               	.LFE29:
 663               	.global	xQueueCRSend
 665               	xQueueCRSend:
 666               	.LFB28:
 667               	.LM90:
 668               	.LVL69:
 669 029c CF93      		push r28
 670 029e DF93      		push r29
 671               	/* prologue: function */
 672               	/* frame size = 0 */
 673 02a0 EC01      		movw r28,r24
 674               	.LM91:
 675               	/* #APP */
 676               	 ;  2444 "FreeRTOS/Source/queue.c" 1
 677 02a2 F894      		cli
 678               	 ;  0 "" 2
 679               	/* #NOAPP */
 680               	.LBB28:
 681               	.LBB29:
 682               	.LM92:
 683               	/* #APP */
 684               	 ;  2395 "FreeRTOS/Source/queue.c" 1
 685 02a4 0FB6      		in		__tmp_reg__, __SREG__
 686               	 ;  0 "" 2
 687               	 ;  2395 "FreeRTOS/Source/queue.c" 1
 688 02a6 F894      		cli
 689               	 ;  0 "" 2
 690               	 ;  2395 "FreeRTOS/Source/queue.c" 1
 691 02a8 0F92      		push	__tmp_reg__
 692               	 ;  0 "" 2
 693               	.LM93:
 694               	/* #NOAPP */
 695 02aa 8A8D      		ldd r24,Y+26
 696               	.LVL70:
 697 02ac 9B8D      		ldd r25,Y+27
 698               	.LM94:
 699               	/* #APP */
 700               	 ;  2406 "FreeRTOS/Source/queue.c" 1
 701 02ae 0F90      		pop		__tmp_reg__
 702               	 ;  0 "" 2
 703               	 ;  2406 "FreeRTOS/Source/queue.c" 1
 704 02b0 0FBE      		out		__SREG__, __tmp_reg__
 705               	 ;  0 "" 2
 706               	/* #NOAPP */
 707               	.LBE29:
 708               	.LBE28:
 709               	.LM95:
 710 02b2 8917      		cp r24,r25
 711 02b4 01F4      		brne .L53
 712               	.LM96:
 713 02b6 4115      		cp r20,__zero_reg__
 714 02b8 5105      		cpc r21,__zero_reg__
 715 02ba 01F0      		breq .L54
 716               	.LM97:
 717 02bc 2896      		adiw r28,8
 718 02be CA01      		movw r24,r20
 719 02c0 BE01      		movw r22,r28
 720               	.LVL71:
 721 02c2 0E94 0000 		call vCoRoutineAddToDelayedList
 722               	.LVL72:
 723               	.LM98:
 724               	/* #APP */
 725               	 ;  2455 "FreeRTOS/Source/queue.c" 1
 726 02c6 7894      		sei
 727               	 ;  0 "" 2
 728               	/* #NOAPP */
 729 02c8 8CEF      		ldi r24,lo8(-4)
 730               	.LVL73:
 731 02ca 00C0      		rjmp .L55
 732               	.LVL74:
 733               	.L54:
 734               	.LM99:
 735               	/* #APP */
 736               	 ;  2460 "FreeRTOS/Source/queue.c" 1
 737 02cc 7894      		sei
 738               	 ;  0 "" 2
 739               	/* #NOAPP */
 740 02ce 80E0      		ldi r24,lo8(0)
 741               	.LVL75:
 742 02d0 00C0      		rjmp .L55
 743               	.LVL76:
 744               	.L53:
 745               	.LM100:
 746               	/* #APP */
 747               	 ;  2465 "FreeRTOS/Source/queue.c" 1
 748 02d2 7894      		sei
 749               	 ;  0 "" 2
 750               	.LM101:
 751               	 ;  2467 "FreeRTOS/Source/queue.c" 1
 752 02d4 F894      		cli
 753               	 ;  0 "" 2
 754               	.LM102:
 755               	/* #NOAPP */
 756 02d6 8A8D      		ldd r24,Y+26
 757 02d8 8917      		cp r24,r25
 758 02da 00F0      		brlo .L56
 759 02dc 80E0      		ldi r24,lo8(0)
 760               	.LVL77:
 761 02de 00C0      		rjmp .L57
 762               	.LVL78:
 763               	.L56:
 764               	.LM103:
 765 02e0 CE01      		movw r24,r28
 766 02e2 40E0      		ldi r20,lo8(0)
 767               	.LVL79:
 768 02e4 0E94 0000 		call prvCopyDataToQueue
 769               	.LVL80:
 770               	.LM104:
 771 02e8 8989      		ldd r24,Y+17
 772 02ea 8823      		tst r24
 773 02ec 01F0      		breq .L58
 774               	.LM105:
 775 02ee CE01      		movw r24,r28
 776 02f0 4196      		adiw r24,17
 777 02f2 0E94 0000 		call xCoRoutineRemoveFromEventList
 778 02f6 8823      		tst r24
 779 02f8 01F0      		breq .L58
 780 02fa 8BEF      		ldi r24,lo8(-5)
 781               	.LVL81:
 782 02fc 00C0      		rjmp .L57
 783               	.LVL82:
 784               	.L58:
 785 02fe 81E0      		ldi r24,lo8(1)
 786               	.LVL83:
 787               	.L57:
 788               	.LM106:
 789               	/* #APP */
 790               	 ;  2503 "FreeRTOS/Source/queue.c" 1
 791 0300 7894      		sei
 792               	 ;  0 "" 2
 793               	/* #NOAPP */
 794               	.L55:
 795               	.LVL84:
 796               	/* epilogue start */
 797               	.LM107:
 798 0302 DF91      		pop r29
 799 0304 CF91      		pop r28
 800               	.LVL85:
 801 0306 0895      		ret
 802               	.LFE28:
 804               	.global	vQueueDelete
 806               	vQueueDelete:
 807               	.LFB19:
 808               	.LM108:
 809               	.LVL86:
 810               	/* prologue: function */
 811               	/* frame size = 0 */
 812               	.LM109:
 813 0308 0E94 0000 		call vPortFree
 814               	.LVL87:
 815               	/* epilogue start */
 816               	.LM110:
 817 030c 0895      		ret
 818               	.LFE19:
 820               	.global	xQueueReceiveFromISR
 822               	xQueueReceiveFromISR:
 823               	.LFB14:
 824               	.LM111:
 825               	.LVL88:
 826 030e EF92      		push r14
 827 0310 FF92      		push r15
 828 0312 0F93      		push r16
 829 0314 1F93      		push r17
 830 0316 CF93      		push r28
 831 0318 DF93      		push r29
 832               	/* prologue: function */
 833               	/* frame size = 0 */
 834 031a EC01      		movw r28,r24
 835 031c 7A01      		movw r14,r20
 836               	.LBB30:
 837               	.LM112:
 838 031e 1A8D      		ldd r17,Y+26
 839               	.LVL89:
 840               	.LM113:
 841 0320 1123      		tst r17
 842 0322 01F4      		brne .L63
 843               	.LVL90:
 844 0324 80E0      		ldi r24,lo8(0)
 845               	.LVL91:
 846 0326 00C0      		rjmp .L64
 847               	.LVL92:
 848               	.L63:
 849               	.LBB31:
 850               	.LM114:
 851 0328 0D8D      		ldd r16,Y+29
 852               	.LVL93:
 853               	.LM115:
 854 032a 0E94 0000 		call prvCopyDataFromQueue
 855               	.LVL94:
 856               	.LM116:
 857 032e 1150      		subi r17,lo8(-(-1))
 858 0330 1A8F      		std Y+26,r17
 859               	.LM117:
 860 0332 0F3F      		cpi r16,lo8(-1)
 861 0334 01F4      		brne .L65
 862               	.LM118:
 863 0336 8885      		ldd r24,Y+8
 864 0338 8823      		tst r24
 865 033a 01F0      		breq .L66
 866               	.LM119:
 867 033c CE01      		movw r24,r28
 868 033e 0896      		adiw r24,8
 869 0340 0E94 0000 		call xTaskRemoveFromEventList
 870 0344 8823      		tst r24
 871 0346 01F0      		breq .L66
 872               	.LM120:
 873 0348 E114      		cp r14,__zero_reg__
 874 034a F104      		cpc r15,__zero_reg__
 875 034c 01F0      		breq .L66
 876               	.LM121:
 877 034e 81E0      		ldi r24,lo8(1)
 878 0350 F701      		movw r30,r14
 879 0352 8083      		st Z,r24
 880 0354 00C0      		rjmp .L64
 881               	.L65:
 882               	.LM122:
 883 0356 0F5F      		subi r16,lo8(-(1))
 884 0358 0D8F      		std Y+29,r16
 885               	.L66:
 886 035a 81E0      		ldi r24,lo8(1)
 887               	.LVL95:
 888               	.L64:
 889               	.LVL96:
 890               	/* epilogue start */
 891               	.LBE31:
 892               	.LBE30:
 893               	.LM123:
 894 035c DF91      		pop r29
 895 035e CF91      		pop r28
 896               	.LVL97:
 897 0360 1F91      		pop r17
 898               	.LVL98:
 899 0362 0F91      		pop r16
 900               	.LVL99:
 901 0364 FF90      		pop r15
 902 0366 EF90      		pop r14
 903               	.LVL100:
 904 0368 0895      		ret
 905               	.LFE14:
 907               	.global	xQueueGiveFromISR
 909               	xQueueGiveFromISR:
 910               	.LFB10:
 911               	.LM124:
 912               	.LVL101:
 913 036a CF93      		push r28
 914 036c DF93      		push r29
 915               	/* prologue: function */
 916               	/* frame size = 0 */
 917 036e FC01      		movw r30,r24
 918 0370 EB01      		movw r28,r22
 919               	.LBB32:
 920               	.LM125:
 921 0372 928D      		ldd r25,Z+26
 922               	.LVL102:
 923               	.LM126:
 924 0374 838D      		ldd r24,Z+27
 925               	.LVL103:
 926 0376 9817      		cp r25,r24
 927 0378 00F0      		brlo .L69
 928               	.LVL104:
 929 037a 80E0      		ldi r24,lo8(0)
 930               	.LVL105:
 931 037c 00C0      		rjmp .L70
 932               	.LVL106:
 933               	.L69:
 934               	.LBB33:
 935               	.LM127:
 936 037e 868D      		ldd r24,Z+30
 937               	.LVL107:
 938               	.LM128:
 939 0380 9F5F      		subi r25,lo8(-(1))
 940 0382 928F      		std Z+26,r25
 941               	.LM129:
 942 0384 8F3F      		cpi r24,lo8(-1)
 943 0386 01F4      		brne .L71
 944               	.LM130:
 945 0388 8189      		ldd r24,Z+17
 946               	.LVL108:
 947 038a 8823      		tst r24
 948 038c 01F0      		breq .L72
 949               	.LM131:
 950 038e CF01      		movw r24,r30
 951 0390 4196      		adiw r24,17
 952 0392 0E94 0000 		call xTaskRemoveFromEventList
 953               	.LVL109:
 954 0396 8823      		tst r24
 955 0398 01F0      		breq .L72
 956               	.LM132:
 957 039a 2097      		sbiw r28,0
 958 039c 01F0      		breq .L72
 959               	.LM133:
 960 039e 81E0      		ldi r24,lo8(1)
 961 03a0 8883      		st Y,r24
 962 03a2 00C0      		rjmp .L70
 963               	.LVL110:
 964               	.L71:
 965               	.LM134:
 966 03a4 8F5F      		subi r24,lo8(-(1))
 967 03a6 868F      		std Z+30,r24
 968               	.L72:
 969 03a8 81E0      		ldi r24,lo8(1)
 970               	.LVL111:
 971               	.L70:
 972               	.LVL112:
 973               	/* epilogue start */
 974               	.LBE33:
 975               	.LBE32:
 976               	.LM135:
 977 03aa DF91      		pop r29
 978 03ac CF91      		pop r28
 979               	.LVL113:
 980 03ae 0895      		ret
 981               	.LFE10:
 983               	.global	xQueueGenericSendFromISR
 985               	xQueueGenericSendFromISR:
 986               	.LFB9:
 987               	.LM136:
 988               	.LVL114:
 989 03b0 EF92      		push r14
 990 03b2 FF92      		push r15
 991 03b4 1F93      		push r17
 992 03b6 CF93      		push r28
 993 03b8 DF93      		push r29
 994               	/* prologue: function */
 995               	/* frame size = 0 */
 996 03ba EC01      		movw r28,r24
 997 03bc 7A01      		movw r14,r20
 998               	.LM137:
 999 03be 9A8D      		ldd r25,Y+26
 1000 03c0 8B8D      		ldd r24,Y+27
 1001               	.LVL115:
 1002 03c2 9817      		cp r25,r24
 1003 03c4 00F0      		brlo .L75
 1004               	.LVL116:
 1005 03c6 2230      		cpi r18,lo8(2)
 1006 03c8 01F0      		breq .L75
 1007 03ca 80E0      		ldi r24,lo8(0)
 1008               	.LVL117:
 1009 03cc 00C0      		rjmp .L76
 1010               	.LVL118:
 1011               	.L75:
 1012               	.LBB34:
 1013               	.LM138:
 1014 03ce 1E8D      		ldd r17,Y+30
 1015               	.LVL119:
 1016               	.LM139:
 1017 03d0 8A8D      		ldd r24,Y+26
 1018               	.LVL120:
 1019               	.LM140:
 1020 03d2 CE01      		movw r24,r28
 1021               	.LVL121:
 1022 03d4 422F      		mov r20,r18
 1023 03d6 0E94 0000 		call prvCopyDataToQueue
 1024               	.LVL122:
 1025               	.LM141:
 1026 03da 1F3F      		cpi r17,lo8(-1)
 1027 03dc 01F4      		brne .L77
 1028               	.LM142:
 1029 03de 8989      		ldd r24,Y+17
 1030 03e0 8823      		tst r24
 1031 03e2 01F0      		breq .L78
 1032               	.LM143:
 1033 03e4 CE01      		movw r24,r28
 1034 03e6 4196      		adiw r24,17
 1035 03e8 0E94 0000 		call xTaskRemoveFromEventList
 1036 03ec 8823      		tst r24
 1037 03ee 01F0      		breq .L78
 1038               	.LM144:
 1039 03f0 E114      		cp r14,__zero_reg__
 1040 03f2 F104      		cpc r15,__zero_reg__
 1041 03f4 01F0      		breq .L78
 1042               	.LM145:
 1043 03f6 81E0      		ldi r24,lo8(1)
 1044 03f8 F701      		movw r30,r14
 1045 03fa 8083      		st Z,r24
 1046 03fc 00C0      		rjmp .L76
 1047               	.L77:
 1048               	.LM146:
 1049 03fe 1F5F      		subi r17,lo8(-(1))
 1050 0400 1E8F      		std Y+30,r17
 1051               	.L78:
 1052 0402 81E0      		ldi r24,lo8(1)
 1053               	.LVL123:
 1054               	.L76:
 1055               	.LVL124:
 1056               	/* epilogue start */
 1057               	.LBE34:
 1058               	.LM147:
 1059 0404 DF91      		pop r29
 1060 0406 CF91      		pop r28
 1061               	.LVL125:
 1062 0408 1F91      		pop r17
 1063               	.LVL126:
 1064 040a FF90      		pop r15
 1065 040c EF90      		pop r14
 1066               	.LVL127:
 1067 040e 0895      		ret
 1068               	.LFE9:
 1071               	prvUnlockQueue:
 1072               	.LFB23:
 1073               	.LM148:
 1074               	.LVL128:
 1075 0410 EF92      		push r14
 1076 0412 FF92      		push r15
 1077 0414 1F93      		push r17
 1078 0416 CF93      		push r28
 1079 0418 DF93      		push r29
 1080               	/* prologue: function */
 1081               	/* frame size = 0 */
 1082 041a EC01      		movw r28,r24
 1083               	.LM149:
 1084               	/* #APP */
 1085               	 ;  2238 "FreeRTOS/Source/queue.c" 1
 1086 041c 0FB6      		in		__tmp_reg__, __SREG__
 1087               	 ;  0 "" 2
 1088               	 ;  2238 "FreeRTOS/Source/queue.c" 1
 1089 041e F894      		cli
 1090               	 ;  0 "" 2
 1091               	 ;  2238 "FreeRTOS/Source/queue.c" 1
 1092 0420 0F92      		push	__tmp_reg__
 1093               	 ;  0 "" 2
 1094               	/* #NOAPP */
 1095               	.LBB35:
 1096               	.LM150:
 1097 0422 1E8D      		ldd r17,Y+30
 1098               	.LVL129:
 1099               	.LM151:
 1100 0424 91E1      		ldi r25,lo8(17)
 1101 0426 E92E      		mov r14,r25
 1102 0428 F12C      		mov r15,__zero_reg__
 1103 042a EC0E      		add r14,r28
 1104 042c FD1E      		adc r15,r29
 1105 042e 00C0      		rjmp .L81
 1106               	.LVL130:
 1107               	.L84:
 1108               	.LM152:
 1109 0430 8989      		ldd r24,Y+17
 1110 0432 8823      		tst r24
 1111 0434 01F0      		breq .L82
 1112               	.LM153:
 1113 0436 C701      		movw r24,r14
 1114 0438 0E94 0000 		call xTaskRemoveFromEventList
 1115 043c 8823      		tst r24
 1116 043e 01F0      		breq .L83
 1117               	.LM154:
 1118 0440 0E94 0000 		call vTaskMissedYield
 1119               	.L83:
 1120               	.LM155:
 1121 0444 1150      		subi r17,lo8(-(-1))
 1122               	.LVL131:
 1123               	.L81:
 1124               	.LM156:
 1125 0446 1116      		cp __zero_reg__,r17
 1126 0448 04F0      		brlt .L84
 1127               	.L82:
 1128               	.LM157:
 1129 044a 8FEF      		ldi r24,lo8(-1)
 1130 044c 8E8F      		std Y+30,r24
 1131               	.LBE35:
 1132               	.LM158:
 1133               	/* #APP */
 1134               	 ;  2316 "FreeRTOS/Source/queue.c" 1
 1135 044e 0F90      		pop		__tmp_reg__
 1136               	 ;  0 "" 2
 1137               	 ;  2316 "FreeRTOS/Source/queue.c" 1
 1138 0450 0FBE      		out		__SREG__, __tmp_reg__
 1139               	 ;  0 "" 2
 1140               	.LM159:
 1141               	 ;  2319 "FreeRTOS/Source/queue.c" 1
 1142 0452 0FB6      		in		__tmp_reg__, __SREG__
 1143               	 ;  0 "" 2
 1144               	 ;  2319 "FreeRTOS/Source/queue.c" 1
 1145 0454 F894      		cli
 1146               	 ;  0 "" 2
 1147               	 ;  2319 "FreeRTOS/Source/queue.c" 1
 1148 0456 0F92      		push	__tmp_reg__
 1149               	 ;  0 "" 2
 1150               	/* #NOAPP */
 1151               	.LBB36:
 1152               	.LM160:
 1153 0458 1D8D      		ldd r17,Y+29
 1154               	.LVL132:
 1155               	.LM161:
 1156 045a 88E0      		ldi r24,lo8(8)
 1157 045c E82E      		mov r14,r24
 1158 045e F12C      		mov r15,__zero_reg__
 1159 0460 EC0E      		add r14,r28
 1160 0462 FD1E      		adc r15,r29
 1161 0464 00C0      		rjmp .L85
 1162               	.L88:
 1163               	.LM162:
 1164 0466 8885      		ldd r24,Y+8
 1165 0468 8823      		tst r24
 1166 046a 01F0      		breq .L86
 1167               	.LM163:
 1168 046c C701      		movw r24,r14
 1169 046e 0E94 0000 		call xTaskRemoveFromEventList
 1170 0472 8823      		tst r24
 1171 0474 01F0      		breq .L87
 1172               	.LM164:
 1173 0476 0E94 0000 		call vTaskMissedYield
 1174               	.L87:
 1175               	.LM165:
 1176 047a 1150      		subi r17,lo8(-(-1))
 1177               	.L85:
 1178               	.LM166:
 1179 047c 1116      		cp __zero_reg__,r17
 1180 047e 04F0      		brlt .L88
 1181               	.L86:
 1182               	.LM167:
 1183 0480 8FEF      		ldi r24,lo8(-1)
 1184 0482 8D8F      		std Y+29,r24
 1185               	.LBE36:
 1186               	.LM168:
 1187               	/* #APP */
 1188               	 ;  2346 "FreeRTOS/Source/queue.c" 1
 1189 0484 0F90      		pop		__tmp_reg__
 1190               	 ;  0 "" 2
 1191               	 ;  2346 "FreeRTOS/Source/queue.c" 1
 1192 0486 0FBE      		out		__SREG__, __tmp_reg__
 1193               	 ;  0 "" 2
 1194               	/* epilogue start */
 1195               	.LM169:
 1196               	/* #NOAPP */
 1197 0488 DF91      		pop r29
 1198 048a CF91      		pop r28
 1199               	.LVL133:
 1200 048c 1F91      		pop r17
 1201               	.LVL134:
 1202 048e FF90      		pop r15
 1203 0490 EF90      		pop r14
 1204 0492 0895      		ret
 1205               	.LFE23:
 1207               	.global	xQueuePeek
 1209               	xQueuePeek:
 1210               	.LFB13:
 1211               	.LM170:
 1212               	.LVL135:
 1213 0494 8F92      		push r8
 1214 0496 9F92      		push r9
 1215 0498 AF92      		push r10
 1216 049a BF92      		push r11
 1217 049c CF92      		push r12
 1218 049e DF92      		push r13
 1219 04a0 EF92      		push r14
 1220 04a2 FF92      		push r15
 1221 04a4 0F93      		push r16
 1222 04a6 1F93      		push r17
 1223 04a8 DF93      		push r29
 1224 04aa CF93      		push r28
 1225 04ac 00D0      		rcall .
 1226 04ae 00D0      		rcall .
 1227 04b0 0F92      		push __tmp_reg__
 1228 04b2 CDB7      		in r28,__SP_L__
 1229 04b4 DEB7      		in r29,__SP_H__
 1230               	/* prologue: function */
 1231               	/* frame size = 5 */
 1232 04b6 7C01      		movw r14,r24
 1233 04b8 5B01      		movw r10,r22
 1234 04ba 5D83      		std Y+5,r21
 1235 04bc 4C83      		std Y+4,r20
 1236               	.LM171:
 1237 04be 41E1      		ldi r20,lo8(17)
 1238 04c0 C42E      		mov r12,r20
 1239 04c2 D12C      		mov r13,__zero_reg__
 1240               	.LVL136:
 1241 04c4 C80E      		add r12,r24
 1242 04c6 D91E      		adc r13,r25
 1243 04c8 20E0      		ldi r18,lo8(0)
 1244               	.LVL137:
 1245               	.LBB37:
 1246               	.LM172:
 1247 04ca 8E01      		movw r16,r28
 1248 04cc 0F5F      		subi r16,lo8(-(1))
 1249 04ce 1F4F      		sbci r17,hi8(-(1))
 1250               	.LBE37:
 1251               	.LM173:
 1252 04d0 34E0      		ldi r19,lo8(4)
 1253 04d2 832E      		mov r8,r19
 1254 04d4 912C      		mov r9,__zero_reg__
 1255 04d6 8C0E      		add r8,r28
 1256 04d8 9D1E      		adc r9,r29
 1257 04da 00C0      		rjmp .L91
 1258               	.LVL138:
 1259               	.L101:
 1260               	.LM174:
 1261 04dc 21E0      		ldi r18,lo8(1)
 1262               	.LVL139:
 1263               	.L91:
 1264               	.LM175:
 1265               	/* #APP */
 1266               	 ;  1708 "FreeRTOS/Source/queue.c" 1
 1267 04de 0FB6      		in		__tmp_reg__, __SREG__
 1268               	 ;  0 "" 2
 1269               	 ;  1708 "FreeRTOS/Source/queue.c" 1
 1270 04e0 F894      		cli
 1271               	 ;  0 "" 2
 1272               	 ;  1708 "FreeRTOS/Source/queue.c" 1
 1273 04e2 0F92      		push	__tmp_reg__
 1274               	 ;  0 "" 2
 1275               	/* #NOAPP */
 1276               	.LBB38:
 1277               	.LM176:
 1278 04e4 F701      		movw r30,r14
 1279 04e6 828D      		ldd r24,Z+26
 1280               	.LVL140:
 1281               	.LM177:
 1282 04e8 8823      		tst r24
 1283 04ea 01F0      		breq .L92
 1284               	.LM178:
 1285 04ec 0681      		ldd r16,Z+6
 1286 04ee 1781      		ldd r17,Z+7
 1287               	.LVL141:
 1288               	.LM179:
 1289 04f0 C701      		movw r24,r14
 1290               	.LVL142:
 1291 04f2 B501      		movw r22,r10
 1292 04f4 0E94 0000 		call prvCopyDataFromQueue
 1293               	.LVL143:
 1294               	.LM180:
 1295 04f8 F701      		movw r30,r14
 1296 04fa 1783      		std Z+7,r17
 1297 04fc 0683      		std Z+6,r16
 1298               	.LM181:
 1299 04fe 8189      		ldd r24,Z+17
 1300 0500 8823      		tst r24
 1301 0502 01F0      		breq .L93
 1302               	.LM182:
 1303 0504 C601      		movw r24,r12
 1304 0506 0E94 0000 		call xTaskRemoveFromEventList
 1305 050a 8823      		tst r24
 1306 050c 01F0      		breq .L93
 1307               	.LM183:
 1308 050e 0E94 0000 		call vPortYield
 1309               	.L93:
 1310               	.LM184:
 1311               	/* #APP */
 1312               	 ;  1746 "FreeRTOS/Source/queue.c" 1
 1313 0512 0F90      		pop		__tmp_reg__
 1314               	 ;  0 "" 2
 1315               	 ;  1746 "FreeRTOS/Source/queue.c" 1
 1316 0514 0FBE      		out		__SREG__, __tmp_reg__
 1317               	 ;  0 "" 2
 1318               	/* #NOAPP */
 1319 0516 81E0      		ldi r24,lo8(1)
 1320 0518 00C0      		rjmp .L94
 1321               	.LVL144:
 1322               	.L92:
 1323               	.LM185:
 1324 051a 8C81      		ldd r24,Y+4
 1325 051c 9D81      		ldd r25,Y+5
 1326               	.LVL145:
 1327 051e 892B      		or r24,r25
 1328 0520 01F4      		brne .L95
 1329               	.LVL146:
 1330               	.LM186:
 1331               	/* #APP */
 1332               	 ;  1755 "FreeRTOS/Source/queue.c" 1
 1333 0522 0F90      		pop		__tmp_reg__
 1334               	 ;  0 "" 2
 1335               	 ;  1755 "FreeRTOS/Source/queue.c" 1
 1336 0524 0FBE      		out		__SREG__, __tmp_reg__
 1337               	 ;  0 "" 2
 1338               	/* #NOAPP */
 1339 0526 80E0      		ldi r24,lo8(0)
 1340               	.LVL147:
 1341 0528 00C0      		rjmp .L94
 1342               	.LVL148:
 1343               	.L95:
 1344               	.LM187:
 1345 052a 2223      		tst r18
 1346 052c 01F4      		brne .L96
 1347               	.LM188:
 1348 052e C801      		movw r24,r16
 1349               	.LVL149:
 1350 0530 0E94 0000 		call vTaskInternalSetTimeOutState
 1351               	.LVL150:
 1352               	.L96:
 1353               	.LBE38:
 1354               	.LM189:
 1355               	/* #APP */
 1356               	 ;  1774 "FreeRTOS/Source/queue.c" 1
 1357 0534 0F90      		pop		__tmp_reg__
 1358               	 ;  0 "" 2
 1359               	 ;  1774 "FreeRTOS/Source/queue.c" 1
 1360 0536 0FBE      		out		__SREG__, __tmp_reg__
 1361               	 ;  0 "" 2
 1362               	.LM190:
 1363               	/* #NOAPP */
 1364 0538 0E94 0000 		call vTaskSuspendAll
 1365               	.LVL151:
 1366               	.LM191:
 1367               	/* #APP */
 1368               	 ;  1780 "FreeRTOS/Source/queue.c" 1
 1369 053c 0FB6      		in		__tmp_reg__, __SREG__
 1370               	 ;  0 "" 2
 1371               	 ;  1780 "FreeRTOS/Source/queue.c" 1
 1372 053e F894      		cli
 1373               	 ;  0 "" 2
 1374               	 ;  1780 "FreeRTOS/Source/queue.c" 1
 1375 0540 0F92      		push	__tmp_reg__
 1376               	 ;  0 "" 2
 1377               	/* #NOAPP */
 1378 0542 F701      		movw r30,r14
 1379 0544 858D      		ldd r24,Z+29
 1380 0546 8F3F      		cpi r24,lo8(-1)
 1381 0548 01F4      		brne .L97
 1382 054a 158E      		std Z+29,__zero_reg__
 1383               	.L97:
 1384 054c F701      		movw r30,r14
 1385 054e 868D      		ldd r24,Z+30
 1386 0550 8F3F      		cpi r24,lo8(-1)
 1387 0552 01F4      		brne .L98
 1388 0554 168E      		std Z+30,__zero_reg__
 1389               	.L98:
 1390               	/* #APP */
 1391               	 ;  1780 "FreeRTOS/Source/queue.c" 1
 1392 0556 0F90      		pop		__tmp_reg__
 1393               	 ;  0 "" 2
 1394               	 ;  1780 "FreeRTOS/Source/queue.c" 1
 1395 0558 0FBE      		out		__SREG__, __tmp_reg__
 1396               	 ;  0 "" 2
 1397               	.LM192:
 1398               	/* #NOAPP */
 1399 055a C801      		movw r24,r16
 1400 055c B401      		movw r22,r8
 1401 055e 0E94 0000 		call xTaskCheckForTimeOut
 1402 0562 8823      		tst r24
 1403 0564 01F4      		brne .L99
 1404               	.LBB39:
 1405               	.LBB40:
 1406               	.LM193:
 1407               	/* #APP */
 1408               	 ;  2354 "FreeRTOS/Source/queue.c" 1
 1409 0566 0FB6      		in		__tmp_reg__, __SREG__
 1410               	 ;  0 "" 2
 1411               	 ;  2354 "FreeRTOS/Source/queue.c" 1
 1412 0568 F894      		cli
 1413               	 ;  0 "" 2
 1414               	 ;  2354 "FreeRTOS/Source/queue.c" 1
 1415 056a 0F92      		push	__tmp_reg__
 1416               	 ;  0 "" 2
 1417               	.LM194:
 1418               	/* #NOAPP */
 1419 056c F701      		movw r30,r14
 1420 056e 828D      		ldd r24,Z+26
 1421               	.LM195:
 1422               	/* #APP */
 1423               	 ;  2365 "FreeRTOS/Source/queue.c" 1
 1424 0570 0F90      		pop		__tmp_reg__
 1425               	 ;  0 "" 2
 1426               	 ;  2365 "FreeRTOS/Source/queue.c" 1
 1427 0572 0FBE      		out		__SREG__, __tmp_reg__
 1428               	 ;  0 "" 2
 1429               	/* #NOAPP */
 1430               	.LBE40:
 1431               	.LBE39:
 1432               	.LM196:
 1433 0574 8823      		tst r24
 1434 0576 01F4      		brne .L100
 1435               	.LM197:
 1436 0578 6C81      		ldd r22,Y+4
 1437 057a 7D81      		ldd r23,Y+5
 1438 057c C601      		movw r24,r12
 1439 057e 0E94 0000 		call vTaskPlaceOnEventList
 1440               	.LM198:
 1441 0582 C701      		movw r24,r14
 1442 0584 0E94 0000 		call prvUnlockQueue
 1443               	.LM199:
 1444 0588 0E94 0000 		call xTaskResumeAll
 1445 058c 8823      		tst r24
 1446 058e 01F0      		breq .+2
 1447 0590 00C0      		rjmp .L101
 1448               	.LM200:
 1449 0592 0E94 0000 		call vPortYield
 1450 0596 00C0      		rjmp .L101
 1451               	.L100:
 1452               	.LM201:
 1453 0598 C701      		movw r24,r14
 1454 059a 0E94 0000 		call prvUnlockQueue
 1455               	.LM202:
 1456 059e 0E94 0000 		call xTaskResumeAll
 1457 05a2 00C0      		rjmp .L101
 1458               	.L99:
 1459               	.LM203:
 1460 05a4 C701      		movw r24,r14
 1461 05a6 0E94 0000 		call prvUnlockQueue
 1462               	.LM204:
 1463 05aa 0E94 0000 		call xTaskResumeAll
 1464               	.LBB41:
 1465               	.LBB42:
 1466               	.LM205:
 1467               	/* #APP */
 1468               	 ;  2354 "FreeRTOS/Source/queue.c" 1
 1469 05ae 0FB6      		in		__tmp_reg__, __SREG__
 1470               	 ;  0 "" 2
 1471               	 ;  2354 "FreeRTOS/Source/queue.c" 1
 1472 05b0 F894      		cli
 1473               	 ;  0 "" 2
 1474               	 ;  2354 "FreeRTOS/Source/queue.c" 1
 1475 05b2 0F92      		push	__tmp_reg__
 1476               	 ;  0 "" 2
 1477               	.LM206:
 1478               	/* #NOAPP */
 1479 05b4 F701      		movw r30,r14
 1480 05b6 828D      		ldd r24,Z+26
 1481               	.LM207:
 1482               	/* #APP */
 1483               	 ;  2365 "FreeRTOS/Source/queue.c" 1
 1484 05b8 0F90      		pop		__tmp_reg__
 1485               	 ;  0 "" 2
 1486               	 ;  2365 "FreeRTOS/Source/queue.c" 1
 1487 05ba 0FBE      		out		__SREG__, __tmp_reg__
 1488               	 ;  0 "" 2
 1489               	/* #NOAPP */
 1490               	.LBE42:
 1491               	.LBE41:
 1492               	.LM208:
 1493 05bc 8823      		tst r24
 1494 05be 01F0      		breq .+2
 1495 05c0 00C0      		rjmp .L101
 1496               	.LVL152:
 1497               	.L94:
 1498               	/* epilogue start */
 1499               	.LM209:
 1500 05c2 0F90      		pop __tmp_reg__
 1501 05c4 0F90      		pop __tmp_reg__
 1502 05c6 0F90      		pop __tmp_reg__
 1503 05c8 0F90      		pop __tmp_reg__
 1504 05ca 0F90      		pop __tmp_reg__
 1505 05cc CF91      		pop r28
 1506 05ce DF91      		pop r29
 1507 05d0 1F91      		pop r17
 1508 05d2 0F91      		pop r16
 1509               	.LVL153:
 1510 05d4 FF90      		pop r15
 1511 05d6 EF90      		pop r14
 1512               	.LVL154:
 1513 05d8 DF90      		pop r13
 1514 05da CF90      		pop r12
 1515 05dc BF90      		pop r11
 1516 05de AF90      		pop r10
 1517               	.LVL155:
 1518 05e0 9F90      		pop r9
 1519 05e2 8F90      		pop r8
 1520 05e4 0895      		ret
 1521               	.LFE13:
 1523               	.global	xQueueReceive
 1525               	xQueueReceive:
 1526               	.LFB11:
 1527               	.LM210:
 1528               	.LVL156:
 1529 05e6 6F92      		push r6
 1530 05e8 7F92      		push r7
 1531 05ea 8F92      		push r8
 1532 05ec 9F92      		push r9
 1533 05ee AF92      		push r10
 1534 05f0 BF92      		push r11
 1535 05f2 CF92      		push r12
 1536 05f4 DF92      		push r13
 1537 05f6 FF92      		push r15
 1538 05f8 0F93      		push r16
 1539 05fa 1F93      		push r17
 1540 05fc DF93      		push r29
 1541 05fe CF93      		push r28
 1542 0600 00D0      		rcall .
 1543 0602 00D0      		rcall .
 1544 0604 0F92      		push __tmp_reg__
 1545 0606 CDB7      		in r28,__SP_L__
 1546 0608 DEB7      		in r29,__SP_H__
 1547               	/* prologue: function */
 1548               	/* frame size = 5 */
 1549 060a 8C01      		movw r16,r24
 1550 060c 5B01      		movw r10,r22
 1551 060e 5D83      		std Y+5,r21
 1552 0610 4C83      		std Y+4,r20
 1553               	.LM211:
 1554 0612 61E1      		ldi r22,lo8(17)
 1555 0614 C62E      		mov r12,r22
 1556 0616 D12C      		mov r13,__zero_reg__
 1557               	.LVL157:
 1558 0618 C80E      		add r12,r24
 1559 061a D91E      		adc r13,r25
 1560 061c 20E0      		ldi r18,lo8(0)
 1561               	.LVL158:
 1562               	.LBB43:
 1563               	.LM212:
 1564 061e 4E01      		movw r8,r28
 1565 0620 0894      		sec
 1566 0622 811C      		adc r8,__zero_reg__
 1567 0624 911C      		adc r9,__zero_reg__
 1568               	.LBE43:
 1569               	.LM213:
 1570 0626 54E0      		ldi r21,lo8(4)
 1571 0628 652E      		mov r6,r21
 1572 062a 712C      		mov r7,__zero_reg__
 1573 062c 6C0E      		add r6,r28
 1574 062e 7D1E      		adc r7,r29
 1575 0630 00C0      		rjmp .L104
 1576               	.LVL159:
 1577               	.L114:
 1578               	.LM214:
 1579 0632 21E0      		ldi r18,lo8(1)
 1580               	.LVL160:
 1581               	.L104:
 1582               	.LM215:
 1583               	/* #APP */
 1584               	 ;  1345 "FreeRTOS/Source/queue.c" 1
 1585 0634 0FB6      		in		__tmp_reg__, __SREG__
 1586               	 ;  0 "" 2
 1587               	 ;  1345 "FreeRTOS/Source/queue.c" 1
 1588 0636 F894      		cli
 1589               	 ;  0 "" 2
 1590               	 ;  1345 "FreeRTOS/Source/queue.c" 1
 1591 0638 0F92      		push	__tmp_reg__
 1592               	 ;  0 "" 2
 1593               	/* #NOAPP */
 1594               	.LBB44:
 1595               	.LM216:
 1596 063a F801      		movw r30,r16
 1597 063c F28C      		ldd r15,Z+26
 1598               	.LM217:
 1599 063e FF20      		tst r15
 1600 0640 01F0      		breq .L105
 1601               	.LM218:
 1602 0642 C801      		movw r24,r16
 1603 0644 B501      		movw r22,r10
 1604 0646 0E94 0000 		call prvCopyDataFromQueue
 1605               	.LVL161:
 1606               	.LM219:
 1607 064a FA94      		dec r15
 1608 064c F801      		movw r30,r16
 1609 064e F28E      		std Z+26,r15
 1610               	.LM220:
 1611 0650 8085      		ldd r24,Z+8
 1612 0652 8823      		tst r24
 1613 0654 01F0      		breq .L106
 1614               	.LM221:
 1615 0656 C801      		movw r24,r16
 1616 0658 0896      		adiw r24,8
 1617 065a 0E94 0000 		call xTaskRemoveFromEventList
 1618 065e 8823      		tst r24
 1619 0660 01F0      		breq .L106
 1620               	.LM222:
 1621 0662 0E94 0000 		call vPortYield
 1622               	.L106:
 1623               	.LM223:
 1624               	/* #APP */
 1625               	 ;  1377 "FreeRTOS/Source/queue.c" 1
 1626 0666 0F90      		pop		__tmp_reg__
 1627               	 ;  0 "" 2
 1628               	 ;  1377 "FreeRTOS/Source/queue.c" 1
 1629 0668 0FBE      		out		__SREG__, __tmp_reg__
 1630               	 ;  0 "" 2
 1631               	/* #NOAPP */
 1632 066a 81E0      		ldi r24,lo8(1)
 1633 066c 00C0      		rjmp .L107
 1634               	.LVL162:
 1635               	.L105:
 1636               	.LM224:
 1637 066e 8C81      		ldd r24,Y+4
 1638 0670 9D81      		ldd r25,Y+5
 1639 0672 892B      		or r24,r25
 1640 0674 01F4      		brne .L108
 1641               	.LVL163:
 1642               	.LM225:
 1643               	/* #APP */
 1644               	 ;  1386 "FreeRTOS/Source/queue.c" 1
 1645 0676 0F90      		pop		__tmp_reg__
 1646               	 ;  0 "" 2
 1647               	 ;  1386 "FreeRTOS/Source/queue.c" 1
 1648 0678 0FBE      		out		__SREG__, __tmp_reg__
 1649               	 ;  0 "" 2
 1650               	/* #NOAPP */
 1651 067a 80E0      		ldi r24,lo8(0)
 1652               	.LVL164:
 1653 067c 00C0      		rjmp .L107
 1654               	.LVL165:
 1655               	.L108:
 1656               	.LM226:
 1657 067e 2223      		tst r18
 1658 0680 01F4      		brne .L109
 1659               	.LM227:
 1660 0682 C401      		movw r24,r8
 1661               	.LVL166:
 1662 0684 0E94 0000 		call vTaskInternalSetTimeOutState
 1663               	.LVL167:
 1664               	.L109:
 1665               	.LBE44:
 1666               	.LM228:
 1667               	/* #APP */
 1668               	 ;  1404 "FreeRTOS/Source/queue.c" 1
 1669 0688 0F90      		pop		__tmp_reg__
 1670               	 ;  0 "" 2
 1671               	 ;  1404 "FreeRTOS/Source/queue.c" 1
 1672 068a 0FBE      		out		__SREG__, __tmp_reg__
 1673               	 ;  0 "" 2
 1674               	.LM229:
 1675               	/* #NOAPP */
 1676 068c 0E94 0000 		call vTaskSuspendAll
 1677               	.LVL168:
 1678               	.LM230:
 1679               	/* #APP */
 1680               	 ;  1410 "FreeRTOS/Source/queue.c" 1
 1681 0690 0FB6      		in		__tmp_reg__, __SREG__
 1682               	 ;  0 "" 2
 1683               	 ;  1410 "FreeRTOS/Source/queue.c" 1
 1684 0692 F894      		cli
 1685               	 ;  0 "" 2
 1686               	 ;  1410 "FreeRTOS/Source/queue.c" 1
 1687 0694 0F92      		push	__tmp_reg__
 1688               	 ;  0 "" 2
 1689               	/* #NOAPP */
 1690 0696 F801      		movw r30,r16
 1691 0698 858D      		ldd r24,Z+29
 1692 069a 8F3F      		cpi r24,lo8(-1)
 1693 069c 01F4      		brne .L110
 1694 069e 158E      		std Z+29,__zero_reg__
 1695               	.L110:
 1696 06a0 F801      		movw r30,r16
 1697 06a2 868D      		ldd r24,Z+30
 1698 06a4 8F3F      		cpi r24,lo8(-1)
 1699 06a6 01F4      		brne .L111
 1700 06a8 168E      		std Z+30,__zero_reg__
 1701               	.L111:
 1702               	/* #APP */
 1703               	 ;  1410 "FreeRTOS/Source/queue.c" 1
 1704 06aa 0F90      		pop		__tmp_reg__
 1705               	 ;  0 "" 2
 1706               	 ;  1410 "FreeRTOS/Source/queue.c" 1
 1707 06ac 0FBE      		out		__SREG__, __tmp_reg__
 1708               	 ;  0 "" 2
 1709               	.LM231:
 1710               	/* #NOAPP */
 1711 06ae C401      		movw r24,r8
 1712 06b0 B301      		movw r22,r6
 1713 06b2 0E94 0000 		call xTaskCheckForTimeOut
 1714 06b6 8823      		tst r24
 1715 06b8 01F4      		brne .L112
 1716               	.LBB45:
 1717               	.LBB46:
 1718               	.LM232:
 1719               	/* #APP */
 1720               	 ;  2354 "FreeRTOS/Source/queue.c" 1
 1721 06ba 0FB6      		in		__tmp_reg__, __SREG__
 1722               	 ;  0 "" 2
 1723               	 ;  2354 "FreeRTOS/Source/queue.c" 1
 1724 06bc F894      		cli
 1725               	 ;  0 "" 2
 1726               	 ;  2354 "FreeRTOS/Source/queue.c" 1
 1727 06be 0F92      		push	__tmp_reg__
 1728               	 ;  0 "" 2
 1729               	.LM233:
 1730               	/* #NOAPP */
 1731 06c0 F801      		movw r30,r16
 1732 06c2 828D      		ldd r24,Z+26
 1733               	.LM234:
 1734               	/* #APP */
 1735               	 ;  2365 "FreeRTOS/Source/queue.c" 1
 1736 06c4 0F90      		pop		__tmp_reg__
 1737               	 ;  0 "" 2
 1738               	 ;  2365 "FreeRTOS/Source/queue.c" 1
 1739 06c6 0FBE      		out		__SREG__, __tmp_reg__
 1740               	 ;  0 "" 2
 1741               	/* #NOAPP */
 1742               	.LBE46:
 1743               	.LBE45:
 1744               	.LM235:
 1745 06c8 8823      		tst r24
 1746 06ca 01F4      		brne .L113
 1747               	.LM236:
 1748 06cc 6C81      		ldd r22,Y+4
 1749 06ce 7D81      		ldd r23,Y+5
 1750 06d0 C601      		movw r24,r12
 1751 06d2 0E94 0000 		call vTaskPlaceOnEventList
 1752               	.LM237:
 1753 06d6 C801      		movw r24,r16
 1754 06d8 0E94 0000 		call prvUnlockQueue
 1755               	.LM238:
 1756 06dc 0E94 0000 		call xTaskResumeAll
 1757 06e0 8823      		tst r24
 1758 06e2 01F0      		breq .+2
 1759 06e4 00C0      		rjmp .L114
 1760               	.LM239:
 1761 06e6 0E94 0000 		call vPortYield
 1762 06ea 00C0      		rjmp .L114
 1763               	.L113:
 1764               	.LM240:
 1765 06ec C801      		movw r24,r16
 1766 06ee 0E94 0000 		call prvUnlockQueue
 1767               	.LM241:
 1768 06f2 0E94 0000 		call xTaskResumeAll
 1769 06f6 00C0      		rjmp .L114
 1770               	.L112:
 1771               	.LM242:
 1772 06f8 C801      		movw r24,r16
 1773 06fa 0E94 0000 		call prvUnlockQueue
 1774               	.LM243:
 1775 06fe 0E94 0000 		call xTaskResumeAll
 1776               	.LBB47:
 1777               	.LBB48:
 1778               	.LM244:
 1779               	/* #APP */
 1780               	 ;  2354 "FreeRTOS/Source/queue.c" 1
 1781 0702 0FB6      		in		__tmp_reg__, __SREG__
 1782               	 ;  0 "" 2
 1783               	 ;  2354 "FreeRTOS/Source/queue.c" 1
 1784 0704 F894      		cli
 1785               	 ;  0 "" 2
 1786               	 ;  2354 "FreeRTOS/Source/queue.c" 1
 1787 0706 0F92      		push	__tmp_reg__
 1788               	 ;  0 "" 2
 1789               	.LM245:
 1790               	/* #NOAPP */
 1791 0708 F801      		movw r30,r16
 1792 070a 828D      		ldd r24,Z+26
 1793               	.LM246:
 1794               	/* #APP */
 1795               	 ;  2365 "FreeRTOS/Source/queue.c" 1
 1796 070c 0F90      		pop		__tmp_reg__
 1797               	 ;  0 "" 2
 1798               	 ;  2365 "FreeRTOS/Source/queue.c" 1
 1799 070e 0FBE      		out		__SREG__, __tmp_reg__
 1800               	 ;  0 "" 2
 1801               	/* #NOAPP */
 1802               	.LBE48:
 1803               	.LBE47:
 1804               	.LM247:
 1805 0710 8823      		tst r24
 1806 0712 01F0      		breq .+2
 1807 0714 00C0      		rjmp .L114
 1808               	.LVL169:
 1809               	.L107:
 1810               	/* epilogue start */
 1811               	.LM248:
 1812 0716 0F90      		pop __tmp_reg__
 1813 0718 0F90      		pop __tmp_reg__
 1814 071a 0F90      		pop __tmp_reg__
 1815 071c 0F90      		pop __tmp_reg__
 1816 071e 0F90      		pop __tmp_reg__
 1817 0720 CF91      		pop r28
 1818 0722 DF91      		pop r29
 1819 0724 1F91      		pop r17
 1820 0726 0F91      		pop r16
 1821               	.LVL170:
 1822 0728 FF90      		pop r15
 1823               	.LVL171:
 1824 072a DF90      		pop r13
 1825 072c CF90      		pop r12
 1826 072e BF90      		pop r11
 1827 0730 AF90      		pop r10
 1828               	.LVL172:
 1829 0732 9F90      		pop r9
 1830 0734 8F90      		pop r8
 1831 0736 7F90      		pop r7
 1832 0738 6F90      		pop r6
 1833 073a 0895      		ret
 1834               	.LFE11:
 1836               	.global	xQueueGenericSend
 1838               	xQueueGenericSend:
 1839               	.LFB8:
 1840               	.LM249:
 1841               	.LVL173:
 1842 073c 6F92      		push r6
 1843 073e 7F92      		push r7
 1844 0740 9F92      		push r9
 1845 0742 AF92      		push r10
 1846 0744 BF92      		push r11
 1847 0746 CF92      		push r12
 1848 0748 DF92      		push r13
 1849 074a EF92      		push r14
 1850 074c FF92      		push r15
 1851 074e 0F93      		push r16
 1852 0750 1F93      		push r17
 1853 0752 DF93      		push r29
 1854 0754 CF93      		push r28
 1855 0756 00D0      		rcall .
 1856 0758 00D0      		rcall .
 1857 075a 0F92      		push __tmp_reg__
 1858 075c CDB7      		in r28,__SP_L__
 1859 075e DEB7      		in r29,__SP_H__
 1860               	/* prologue: function */
 1861               	/* frame size = 5 */
 1862 0760 8C01      		movw r16,r24
 1863 0762 6B01      		movw r12,r22
 1864 0764 5D83      		std Y+5,r21
 1865 0766 4C83      		std Y+4,r20
 1866 0768 922E      		mov r9,r18
 1867               	.LM250:
 1868 076a E8E0      		ldi r30,lo8(8)
 1869 076c EE2E      		mov r14,r30
 1870 076e F12C      		mov r15,__zero_reg__
 1871 0770 E80E      		add r14,r24
 1872 0772 F91E      		adc r15,r25
 1873 0774 20E0      		ldi r18,lo8(0)
 1874               	.LVL174:
 1875               	.LM251:
 1876 0776 5E01      		movw r10,r28
 1877 0778 0894      		sec
 1878 077a A11C      		adc r10,__zero_reg__
 1879 077c B11C      		adc r11,__zero_reg__
 1880               	.LM252:
 1881 077e 74E0      		ldi r23,lo8(4)
 1882 0780 672E      		mov r6,r23
 1883 0782 712C      		mov r7,__zero_reg__
 1884 0784 6C0E      		add r6,r28
 1885 0786 7D1E      		adc r7,r29
 1886 0788 00C0      		rjmp .L117
 1887               	.LVL175:
 1888               	.L129:
 1889               	.LM253:
 1890 078a 21E0      		ldi r18,lo8(1)
 1891               	.LVL176:
 1892               	.L117:
 1893               	.LM254:
 1894               	/* #APP */
 1895               	 ;  794 "FreeRTOS/Source/queue.c" 1
 1896 078c 0FB6      		in		__tmp_reg__, __SREG__
 1897               	 ;  0 "" 2
 1898               	 ;  794 "FreeRTOS/Source/queue.c" 1
 1899 078e F894      		cli
 1900               	 ;  0 "" 2
 1901               	 ;  794 "FreeRTOS/Source/queue.c" 1
 1902 0790 0F92      		push	__tmp_reg__
 1903               	 ;  0 "" 2
 1904               	.LM255:
 1905               	/* #NOAPP */
 1906 0792 F801      		movw r30,r16
 1907 0794 928D      		ldd r25,Z+26
 1908 0796 838D      		ldd r24,Z+27
 1909 0798 9817      		cp r25,r24
 1910 079a 00F0      		brlo .L118
 1911 079c F2E0      		ldi r31,lo8(2)
 1912 079e 9F16      		cp r9,r31
 1913 07a0 01F4      		brne .L119
 1914               	.L118:
 1915               	.LM256:
 1916 07a2 C801      		movw r24,r16
 1917 07a4 B601      		movw r22,r12
 1918 07a6 492D      		mov r20,r9
 1919 07a8 0E94 0000 		call prvCopyDataToQueue
 1920               	.LVL177:
 1921 07ac 982F      		mov r25,r24
 1922               	.LVL178:
 1923               	.LM257:
 1924 07ae F801      		movw r30,r16
 1925 07b0 8189      		ldd r24,Z+17
 1926 07b2 8823      		tst r24
 1927 07b4 01F0      		breq .L120
 1928               	.LM258:
 1929 07b6 C801      		movw r24,r16
 1930 07b8 4196      		adiw r24,17
 1931 07ba 0E94 0000 		call xTaskRemoveFromEventList
 1932               	.LVL179:
 1933 07be 8823      		tst r24
 1934 07c0 01F0      		breq .L121
 1935 07c2 00C0      		rjmp .L131
 1936               	.LVL180:
 1937               	.L120:
 1938               	.LM259:
 1939 07c4 9923      		tst r25
 1940 07c6 01F0      		breq .L121
 1941               	.L131:
 1942               	.LM260:
 1943 07c8 0E94 0000 		call vPortYield
 1944               	.LVL181:
 1945               	.L121:
 1946               	.LM261:
 1947               	/* #APP */
 1948               	 ;  900 "FreeRTOS/Source/queue.c" 1
 1949 07cc 0F90      		pop		__tmp_reg__
 1950               	 ;  0 "" 2
 1951               	 ;  900 "FreeRTOS/Source/queue.c" 1
 1952 07ce 0FBE      		out		__SREG__, __tmp_reg__
 1953               	 ;  0 "" 2
 1954               	/* #NOAPP */
 1955 07d0 81E0      		ldi r24,lo8(1)
 1956 07d2 00C0      		rjmp .L122
 1957               	.LVL182:
 1958               	.L119:
 1959               	.LM262:
 1960 07d4 8C81      		ldd r24,Y+4
 1961 07d6 9D81      		ldd r25,Y+5
 1962 07d8 892B      		or r24,r25
 1963 07da 01F4      		brne .L123
 1964               	.LVL183:
 1965               	.LM263:
 1966               	/* #APP */
 1967               	 ;  909 "FreeRTOS/Source/queue.c" 1
 1968 07dc 0F90      		pop		__tmp_reg__
 1969               	 ;  0 "" 2
 1970               	 ;  909 "FreeRTOS/Source/queue.c" 1
 1971 07de 0FBE      		out		__SREG__, __tmp_reg__
 1972               	 ;  0 "" 2
 1973               	/* #NOAPP */
 1974 07e0 00C0      		rjmp .L132
 1975               	.L123:
 1976               	.LM264:
 1977 07e2 2223      		tst r18
 1978 07e4 01F4      		brne .L124
 1979               	.LM265:
 1980 07e6 C501      		movw r24,r10
 1981               	.LVL184:
 1982 07e8 0E94 0000 		call vTaskInternalSetTimeOutState
 1983               	.LVL185:
 1984               	.L124:
 1985               	.LM266:
 1986               	/* #APP */
 1987               	 ;  930 "FreeRTOS/Source/queue.c" 1
 1988 07ec 0F90      		pop		__tmp_reg__
 1989               	 ;  0 "" 2
 1990               	 ;  930 "FreeRTOS/Source/queue.c" 1
 1991 07ee 0FBE      		out		__SREG__, __tmp_reg__
 1992               	 ;  0 "" 2
 1993               	.LM267:
 1994               	/* #NOAPP */
 1995 07f0 0E94 0000 		call vTaskSuspendAll
 1996               	.LVL186:
 1997               	.LM268:
 1998               	/* #APP */
 1999               	 ;  936 "FreeRTOS/Source/queue.c" 1
 2000 07f4 0FB6      		in		__tmp_reg__, __SREG__
 2001               	 ;  0 "" 2
 2002               	 ;  936 "FreeRTOS/Source/queue.c" 1
 2003 07f6 F894      		cli
 2004               	 ;  0 "" 2
 2005               	 ;  936 "FreeRTOS/Source/queue.c" 1
 2006 07f8 0F92      		push	__tmp_reg__
 2007               	 ;  0 "" 2
 2008               	/* #NOAPP */
 2009 07fa F801      		movw r30,r16
 2010 07fc 858D      		ldd r24,Z+29
 2011 07fe 8F3F      		cpi r24,lo8(-1)
 2012 0800 01F4      		brne .L125
 2013 0802 158E      		std Z+29,__zero_reg__
 2014               	.L125:
 2015 0804 F801      		movw r30,r16
 2016 0806 868D      		ldd r24,Z+30
 2017 0808 8F3F      		cpi r24,lo8(-1)
 2018 080a 01F4      		brne .L126
 2019 080c 168E      		std Z+30,__zero_reg__
 2020               	.L126:
 2021               	/* #APP */
 2022               	 ;  936 "FreeRTOS/Source/queue.c" 1
 2023 080e 0F90      		pop		__tmp_reg__
 2024               	 ;  0 "" 2
 2025               	 ;  936 "FreeRTOS/Source/queue.c" 1
 2026 0810 0FBE      		out		__SREG__, __tmp_reg__
 2027               	 ;  0 "" 2
 2028               	.LM269:
 2029               	/* #NOAPP */
 2030 0812 C501      		movw r24,r10
 2031 0814 B301      		movw r22,r6
 2032 0816 0E94 0000 		call xTaskCheckForTimeOut
 2033 081a 8823      		tst r24
 2034 081c 01F4      		brne .L127
 2035               	.LBB49:
 2036               	.LBB50:
 2037               	.LM270:
 2038               	/* #APP */
 2039               	 ;  2395 "FreeRTOS/Source/queue.c" 1
 2040 081e 0FB6      		in		__tmp_reg__, __SREG__
 2041               	 ;  0 "" 2
 2042               	 ;  2395 "FreeRTOS/Source/queue.c" 1
 2043 0820 F894      		cli
 2044               	 ;  0 "" 2
 2045               	 ;  2395 "FreeRTOS/Source/queue.c" 1
 2046 0822 0F92      		push	__tmp_reg__
 2047               	 ;  0 "" 2
 2048               	.LM271:
 2049               	/* #NOAPP */
 2050 0824 F801      		movw r30,r16
 2051 0826 928D      		ldd r25,Z+26
 2052               	.LM272:
 2053               	/* #APP */
 2054               	 ;  2406 "FreeRTOS/Source/queue.c" 1
 2055 0828 0F90      		pop		__tmp_reg__
 2056               	 ;  0 "" 2
 2057               	 ;  2406 "FreeRTOS/Source/queue.c" 1
 2058 082a 0FBE      		out		__SREG__, __tmp_reg__
 2059               	 ;  0 "" 2
 2060               	/* #NOAPP */
 2061               	.LBE50:
 2062               	.LBE49:
 2063               	.LM273:
 2064 082c F801      		movw r30,r16
 2065 082e 838D      		ldd r24,Z+27
 2066 0830 9817      		cp r25,r24
 2067 0832 01F4      		brne .L128
 2068               	.LM274:
 2069 0834 6C81      		ldd r22,Y+4
 2070 0836 7D81      		ldd r23,Y+5
 2071 0838 C701      		movw r24,r14
 2072 083a 0E94 0000 		call vTaskPlaceOnEventList
 2073               	.LM275:
 2074 083e C801      		movw r24,r16
 2075 0840 0E94 0000 		call prvUnlockQueue
 2076               	.LM276:
 2077 0844 0E94 0000 		call xTaskResumeAll
 2078 0848 8823      		tst r24
 2079 084a 01F0      		breq .+2
 2080 084c 00C0      		rjmp .L129
 2081               	.LM277:
 2082 084e 0E94 0000 		call vPortYield
 2083 0852 00C0      		rjmp .L129
 2084               	.L128:
 2085               	.LM278:
 2086 0854 C801      		movw r24,r16
 2087 0856 0E94 0000 		call prvUnlockQueue
 2088               	.LM279:
 2089 085a 0E94 0000 		call xTaskResumeAll
 2090 085e 00C0      		rjmp .L129
 2091               	.L127:
 2092               	.LM280:
 2093 0860 C801      		movw r24,r16
 2094 0862 0E94 0000 		call prvUnlockQueue
 2095               	.LM281:
 2096 0866 0E94 0000 		call xTaskResumeAll
 2097               	.LVL187:
 2098               	.L132:
 2099 086a 80E0      		ldi r24,lo8(0)
 2100               	.LVL188:
 2101               	.L122:
 2102               	/* epilogue start */
 2103               	.LM282:
 2104 086c 0F90      		pop __tmp_reg__
 2105 086e 0F90      		pop __tmp_reg__
 2106 0870 0F90      		pop __tmp_reg__
 2107 0872 0F90      		pop __tmp_reg__
 2108 0874 0F90      		pop __tmp_reg__
 2109 0876 CF91      		pop r28
 2110 0878 DF91      		pop r29
 2111 087a 1F91      		pop r17
 2112 087c 0F91      		pop r16
 2113               	.LVL189:
 2114 087e FF90      		pop r15
 2115 0880 EF90      		pop r14
 2116 0882 DF90      		pop r13
 2117 0884 CF90      		pop r12
 2118               	.LVL190:
 2119 0886 BF90      		pop r11
 2120 0888 AF90      		pop r10
 2121 088a 9F90      		pop r9
 2122               	.LVL191:
 2123 088c 7F90      		pop r7
 2124 088e 6F90      		pop r6
 2125 0890 0895      		ret
 2126               	.LFE8:
 2128               	.global	xQueueSemaphoreTake
 2130               	xQueueSemaphoreTake:
 2131               	.LFB12:
 2132               	.LM283:
 2133               	.LVL192:
 2134 0892 8F92      		push r8
 2135 0894 9F92      		push r9
 2136 0896 AF92      		push r10
 2137 0898 BF92      		push r11
 2138 089a DF92      		push r13
 2139 089c EF92      		push r14
 2140 089e FF92      		push r15
 2141 08a0 0F93      		push r16
 2142 08a2 1F93      		push r17
 2143 08a4 DF93      		push r29
 2144 08a6 CF93      		push r28
 2145 08a8 00D0      		rcall .
 2146 08aa 00D0      		rcall .
 2147 08ac 0F92      		push __tmp_reg__
 2148 08ae CDB7      		in r28,__SP_L__
 2149 08b0 DEB7      		in r29,__SP_H__
 2150               	/* prologue: function */
 2151               	/* frame size = 5 */
 2152 08b2 8C01      		movw r16,r24
 2153 08b4 7D83      		std Y+5,r23
 2154 08b6 6C83      		std Y+4,r22
 2155               	.LM284:
 2156 08b8 A1E1      		ldi r26,lo8(17)
 2157 08ba EA2E      		mov r14,r26
 2158 08bc F12C      		mov r15,__zero_reg__
 2159 08be E80E      		add r14,r24
 2160 08c0 F91E      		adc r15,r25
 2161 08c2 20E0      		ldi r18,lo8(0)
 2162               	.LVL193:
 2163 08c4 DD24      		clr r13
 2164               	.LVL194:
 2165               	.LBB51:
 2166               	.LM285:
 2167 08c6 5E01      		movw r10,r28
 2168 08c8 0894      		sec
 2169 08ca A11C      		adc r10,__zero_reg__
 2170 08cc B11C      		adc r11,__zero_reg__
 2171               	.LBE51:
 2172               	.LM286:
 2173 08ce F4E0      		ldi r31,lo8(4)
 2174 08d0 8F2E      		mov r8,r31
 2175 08d2 912C      		mov r9,__zero_reg__
 2176 08d4 8C0E      		add r8,r28
 2177 08d6 9D1E      		adc r9,r29
 2178 08d8 00C0      		rjmp .L134
 2179               	.LVL195:
 2180               	.L146:
 2181               	.LM287:
 2182 08da 21E0      		ldi r18,lo8(1)
 2183               	.LVL196:
 2184               	.L134:
 2185               	.LM288:
 2186               	/* #APP */
 2187               	 ;  1491 "FreeRTOS/Source/queue.c" 1
 2188 08dc 0FB6      		in		__tmp_reg__, __SREG__
 2189               	 ;  0 "" 2
 2190               	 ;  1491 "FreeRTOS/Source/queue.c" 1
 2191 08de F894      		cli
 2192               	 ;  0 "" 2
 2193               	 ;  1491 "FreeRTOS/Source/queue.c" 1
 2194 08e0 0F92      		push	__tmp_reg__
 2195               	 ;  0 "" 2
 2196               	/* #NOAPP */
 2197               	.LBB52:
 2198               	.LM289:
 2199 08e2 D801      		movw r26,r16
 2200 08e4 5A96      		adiw r26,26
 2201 08e6 8C91      		ld r24,X
 2202 08e8 5A97      		sbiw r26,26
 2203               	.LVL197:
 2204               	.LM290:
 2205 08ea 8823      		tst r24
 2206 08ec 01F0      		breq .L135
 2207               	.LM291:
 2208 08ee 8150      		subi r24,lo8(-(-1))
 2209 08f0 5A96      		adiw r26,26
 2210 08f2 8C93      		st X,r24
 2211 08f4 5A97      		sbiw r26,26
 2212               	.LM292:
 2213 08f6 8D91      		ld r24,X+
 2214 08f8 9C91      		ld r25,X
 2215               	.LVL198:
 2216 08fa 892B      		or r24,r25
 2217 08fc 01F4      		brne .L136
 2218               	.LM293:
 2219 08fe 0E94 0000 		call pvTaskIncrementMutexHeldCount
 2220               	.LVL199:
 2221 0902 F801      		movw r30,r16
 2222 0904 9583      		std Z+5,r25
 2223 0906 8483      		std Z+4,r24
 2224               	.LVL200:
 2225               	.L136:
 2226               	.LM294:
 2227 0908 D801      		movw r26,r16
 2228 090a 1896      		adiw r26,8
 2229 090c 8C91      		ld r24,X
 2230 090e 8823      		tst r24
 2231 0910 01F0      		breq .L137
 2232               	.LM295:
 2233 0912 C801      		movw r24,r16
 2234 0914 0896      		adiw r24,8
 2235 0916 0E94 0000 		call xTaskRemoveFromEventList
 2236               	.LVL201:
 2237 091a 8823      		tst r24
 2238 091c 01F0      		breq .L137
 2239               	.LM296:
 2240 091e 0E94 0000 		call vPortYield
 2241               	.LVL202:
 2242               	.L137:
 2243               	.LM297:
 2244               	/* #APP */
 2245               	 ;  1540 "FreeRTOS/Source/queue.c" 1
 2246 0922 0F90      		pop		__tmp_reg__
 2247               	 ;  0 "" 2
 2248               	 ;  1540 "FreeRTOS/Source/queue.c" 1
 2249 0924 0FBE      		out		__SREG__, __tmp_reg__
 2250               	 ;  0 "" 2
 2251               	/* #NOAPP */
 2252 0926 81E0      		ldi r24,lo8(1)
 2253 0928 00C0      		rjmp .L138
 2254               	.LVL203:
 2255               	.L135:
 2256               	.LM298:
 2257 092a 8C81      		ldd r24,Y+4
 2258 092c 9D81      		ldd r25,Y+5
 2259               	.LVL204:
 2260 092e 892B      		or r24,r25
 2261 0930 01F4      		brne .L139
 2262               	.LVL205:
 2263               	.LM299:
 2264               	/* #APP */
 2265               	 ;  1558 "FreeRTOS/Source/queue.c" 1
 2266 0932 0F90      		pop		__tmp_reg__
 2267               	 ;  0 "" 2
 2268               	 ;  1558 "FreeRTOS/Source/queue.c" 1
 2269 0934 0FBE      		out		__SREG__, __tmp_reg__
 2270               	 ;  0 "" 2
 2271               	/* #NOAPP */
 2272 0936 00C0      		rjmp .L151
 2273               	.L139:
 2274               	.LM300:
 2275 0938 2223      		tst r18
 2276 093a 01F4      		brne .L140
 2277               	.LM301:
 2278 093c C501      		movw r24,r10
 2279               	.LVL206:
 2280 093e 0E94 0000 		call vTaskInternalSetTimeOutState
 2281               	.LVL207:
 2282               	.L140:
 2283               	.LBE52:
 2284               	.LM302:
 2285               	/* #APP */
 2286               	 ;  1576 "FreeRTOS/Source/queue.c" 1
 2287 0942 0F90      		pop		__tmp_reg__
 2288               	 ;  0 "" 2
 2289               	 ;  1576 "FreeRTOS/Source/queue.c" 1
 2290 0944 0FBE      		out		__SREG__, __tmp_reg__
 2291               	 ;  0 "" 2
 2292               	.LM303:
 2293               	/* #NOAPP */
 2294 0946 0E94 0000 		call vTaskSuspendAll
 2295               	.LVL208:
 2296               	.LM304:
 2297               	/* #APP */
 2298               	 ;  1582 "FreeRTOS/Source/queue.c" 1
 2299 094a 0FB6      		in		__tmp_reg__, __SREG__
 2300               	 ;  0 "" 2
 2301               	 ;  1582 "FreeRTOS/Source/queue.c" 1
 2302 094c F894      		cli
 2303               	 ;  0 "" 2
 2304               	 ;  1582 "FreeRTOS/Source/queue.c" 1
 2305 094e 0F92      		push	__tmp_reg__
 2306               	 ;  0 "" 2
 2307               	/* #NOAPP */
 2308 0950 F801      		movw r30,r16
 2309 0952 858D      		ldd r24,Z+29
 2310 0954 8F3F      		cpi r24,lo8(-1)
 2311 0956 01F4      		brne .L141
 2312 0958 158E      		std Z+29,__zero_reg__
 2313               	.L141:
 2314 095a D801      		movw r26,r16
 2315 095c 5E96      		adiw r26,30
 2316 095e 8C91      		ld r24,X
 2317 0960 5E97      		sbiw r26,30
 2318 0962 8F3F      		cpi r24,lo8(-1)
 2319 0964 01F4      		brne .L142
 2320 0966 5E96      		adiw r26,30
 2321 0968 1C92      		st X,__zero_reg__
 2322               	.L142:
 2323               	/* #APP */
 2324               	 ;  1582 "FreeRTOS/Source/queue.c" 1
 2325 096a 0F90      		pop		__tmp_reg__
 2326               	 ;  0 "" 2
 2327               	 ;  1582 "FreeRTOS/Source/queue.c" 1
 2328 096c 0FBE      		out		__SREG__, __tmp_reg__
 2329               	 ;  0 "" 2
 2330               	.LM305:
 2331               	/* #NOAPP */
 2332 096e C501      		movw r24,r10
 2333 0970 B401      		movw r22,r8
 2334 0972 0E94 0000 		call xTaskCheckForTimeOut
 2335 0976 8823      		tst r24
 2336 0978 01F4      		brne .L143
 2337               	.LBB53:
 2338               	.LBB54:
 2339               	.LM306:
 2340               	/* #APP */
 2341               	 ;  2354 "FreeRTOS/Source/queue.c" 1
 2342 097a 0FB6      		in		__tmp_reg__, __SREG__
 2343               	 ;  0 "" 2
 2344               	 ;  2354 "FreeRTOS/Source/queue.c" 1
 2345 097c F894      		cli
 2346               	 ;  0 "" 2
 2347               	 ;  2354 "FreeRTOS/Source/queue.c" 1
 2348 097e 0F92      		push	__tmp_reg__
 2349               	 ;  0 "" 2
 2350               	.LM307:
 2351               	/* #NOAPP */
 2352 0980 F801      		movw r30,r16
 2353 0982 828D      		ldd r24,Z+26
 2354               	.LM308:
 2355               	/* #APP */
 2356               	 ;  2365 "FreeRTOS/Source/queue.c" 1
 2357 0984 0F90      		pop		__tmp_reg__
 2358               	 ;  0 "" 2
 2359               	 ;  2365 "FreeRTOS/Source/queue.c" 1
 2360 0986 0FBE      		out		__SREG__, __tmp_reg__
 2361               	 ;  0 "" 2
 2362               	/* #NOAPP */
 2363               	.LBE54:
 2364               	.LBE53:
 2365               	.LM309:
 2366 0988 8823      		tst r24
 2367 098a 01F4      		brne .L144
 2368               	.LM310:
 2369 098c D801      		movw r26,r16
 2370 098e 8D91      		ld r24,X+
 2371 0990 9C91      		ld r25,X
 2372 0992 892B      		or r24,r25
 2373 0994 01F4      		brne .L145
 2374               	.LM311:
 2375               	/* #APP */
 2376               	 ;  1599 "FreeRTOS/Source/queue.c" 1
 2377 0996 0FB6      		in		__tmp_reg__, __SREG__
 2378               	 ;  0 "" 2
 2379               	 ;  1599 "FreeRTOS/Source/queue.c" 1
 2380 0998 F894      		cli
 2381               	 ;  0 "" 2
 2382               	 ;  1599 "FreeRTOS/Source/queue.c" 1
 2383 099a 0F92      		push	__tmp_reg__
 2384               	 ;  0 "" 2
 2385               	.LM312:
 2386               	/* #NOAPP */
 2387 099c F801      		movw r30,r16
 2388 099e 8481      		ldd r24,Z+4
 2389 09a0 9581      		ldd r25,Z+5
 2390 09a2 0E94 0000 		call xTaskPriorityInherit
 2391 09a6 D82E      		mov r13,r24
 2392               	.LM313:
 2393               	/* #APP */
 2394               	 ;  1603 "FreeRTOS/Source/queue.c" 1
 2395 09a8 0F90      		pop		__tmp_reg__
 2396               	 ;  0 "" 2
 2397               	 ;  1603 "FreeRTOS/Source/queue.c" 1
 2398 09aa 0FBE      		out		__SREG__, __tmp_reg__
 2399               	 ;  0 "" 2
 2400               	/* #NOAPP */
 2401               	.L145:
 2402               	.LM314:
 2403 09ac 6C81      		ldd r22,Y+4
 2404 09ae 7D81      		ldd r23,Y+5
 2405 09b0 C701      		movw r24,r14
 2406 09b2 0E94 0000 		call vTaskPlaceOnEventList
 2407               	.LM315:
 2408 09b6 C801      		movw r24,r16
 2409 09b8 0E94 0000 		call prvUnlockQueue
 2410               	.LM316:
 2411 09bc 0E94 0000 		call xTaskResumeAll
 2412 09c0 8823      		tst r24
 2413 09c2 01F0      		breq .+2
 2414 09c4 00C0      		rjmp .L146
 2415               	.LM317:
 2416 09c6 0E94 0000 		call vPortYield
 2417 09ca 00C0      		rjmp .L146
 2418               	.L144:
 2419               	.LM318:
 2420 09cc C801      		movw r24,r16
 2421 09ce 0E94 0000 		call prvUnlockQueue
 2422               	.LM319:
 2423 09d2 0E94 0000 		call xTaskResumeAll
 2424 09d6 00C0      		rjmp .L146
 2425               	.L143:
 2426               	.LM320:
 2427 09d8 C801      		movw r24,r16
 2428 09da 0E94 0000 		call prvUnlockQueue
 2429               	.LM321:
 2430 09de 0E94 0000 		call xTaskResumeAll
 2431               	.LBB55:
 2432               	.LBB56:
 2433               	.LM322:
 2434               	/* #APP */
 2435               	 ;  2354 "FreeRTOS/Source/queue.c" 1
 2436 09e2 0FB6      		in		__tmp_reg__, __SREG__
 2437               	 ;  0 "" 2
 2438               	 ;  2354 "FreeRTOS/Source/queue.c" 1
 2439 09e4 F894      		cli
 2440               	 ;  0 "" 2
 2441               	 ;  2354 "FreeRTOS/Source/queue.c" 1
 2442 09e6 0F92      		push	__tmp_reg__
 2443               	 ;  0 "" 2
 2444               	.LM323:
 2445               	/* #NOAPP */
 2446 09e8 D801      		movw r26,r16
 2447 09ea 5A96      		adiw r26,26
 2448 09ec 8C91      		ld r24,X
 2449               	.LM324:
 2450               	/* #APP */
 2451               	 ;  2365 "FreeRTOS/Source/queue.c" 1
 2452 09ee 0F90      		pop		__tmp_reg__
 2453               	 ;  0 "" 2
 2454               	 ;  2365 "FreeRTOS/Source/queue.c" 1
 2455 09f0 0FBE      		out		__SREG__, __tmp_reg__
 2456               	 ;  0 "" 2
 2457               	/* #NOAPP */
 2458               	.LBE56:
 2459               	.LBE55:
 2460               	.LM325:
 2461 09f2 8823      		tst r24
 2462 09f4 01F0      		breq .+2
 2463 09f6 00C0      		rjmp .L146
 2464               	.LM326:
 2465 09f8 DD20      		tst r13
 2466 09fa 01F0      		breq .L138
 2467               	.LM327:
 2468               	/* #APP */
 2469               	 ;  1651 "FreeRTOS/Source/queue.c" 1
 2470 09fc 0FB6      		in		__tmp_reg__, __SREG__
 2471               	 ;  0 "" 2
 2472               	 ;  1651 "FreeRTOS/Source/queue.c" 1
 2473 09fe F894      		cli
 2474               	 ;  0 "" 2
 2475               	 ;  1651 "FreeRTOS/Source/queue.c" 1
 2476 0a00 0F92      		push	__tmp_reg__
 2477               	 ;  0 "" 2
 2478               	/* #NOAPP */
 2479               	.LBB57:
 2480               	.LBB58:
 2481               	.LBB59:
 2482               	.LM328:
 2483 0a02 F801      		movw r30,r16
 2484 0a04 8189      		ldd r24,Z+17
 2485 0a06 8823      		tst r24
 2486 0a08 01F4      		brne .L148
 2487 0a0a 60E0      		ldi r22,lo8(0)
 2488               	.LVL209:
 2489 0a0c 00C0      		rjmp .L149
 2490               	.LVL210:
 2491               	.L148:
 2492               	.LM329:
 2493 0a0e D801      		movw r26,r16
 2494 0a10 5696      		adiw r26,22
 2495 0a12 ED91      		ld r30,X+
 2496 0a14 FC91      		ld r31,X
 2497 0a16 5797      		sbiw r26,22+1
 2498 0a18 64E0      		ldi r22,lo8(4)
 2499               	.LVL211:
 2500 0a1a 8081      		ld r24,Z
 2501 0a1c 681B      		sub r22,r24
 2502               	.L149:
 2503               	.LBE59:
 2504               	.LBE58:
 2505               	.LM330:
 2506 0a1e F801      		movw r30,r16
 2507 0a20 8481      		ldd r24,Z+4
 2508 0a22 9581      		ldd r25,Z+5
 2509 0a24 0E94 0000 		call vTaskPriorityDisinheritAfterTimeout
 2510               	.LVL212:
 2511               	.LBE57:
 2512               	.LM331:
 2513               	/* #APP */
 2514               	 ;  1663 "FreeRTOS/Source/queue.c" 1
 2515 0a28 0F90      		pop		__tmp_reg__
 2516               	 ;  0 "" 2
 2517               	 ;  1663 "FreeRTOS/Source/queue.c" 1
 2518 0a2a 0FBE      		out		__SREG__, __tmp_reg__
 2519               	 ;  0 "" 2
 2520               	.LVL213:
 2521               	/* #NOAPP */
 2522               	.L151:
 2523 0a2c 80E0      		ldi r24,lo8(0)
 2524               	.L138:
 2525               	/* epilogue start */
 2526               	.LM332:
 2527 0a2e 0F90      		pop __tmp_reg__
 2528 0a30 0F90      		pop __tmp_reg__
 2529 0a32 0F90      		pop __tmp_reg__
 2530 0a34 0F90      		pop __tmp_reg__
 2531 0a36 0F90      		pop __tmp_reg__
 2532 0a38 CF91      		pop r28
 2533 0a3a DF91      		pop r29
 2534 0a3c 1F91      		pop r17
 2535 0a3e 0F91      		pop r16
 2536               	.LVL214:
 2537 0a40 FF90      		pop r15
 2538 0a42 EF90      		pop r14
 2539 0a44 DF90      		pop r13
 2540               	.LVL215:
 2541 0a46 BF90      		pop r11
 2542 0a48 AF90      		pop r10
 2543 0a4a 9F90      		pop r9
 2544 0a4c 8F90      		pop r8
 2545 0a4e 0895      		ret
 2546               	.LFE12:
 2548               	.global	xQueueGenericReset
 2550               	xQueueGenericReset:
 2551               	.LFB2:
 2552               	.LM333:
 2553               	.LVL216:
 2554 0a50 CF93      		push r28
 2555 0a52 DF93      		push r29
 2556               	/* prologue: function */
 2557               	/* frame size = 0 */
 2558 0a54 EC01      		movw r28,r24
 2559               	.LM334:
 2560               	/* #APP */
 2561               	 ;  271 "FreeRTOS/Source/queue.c" 1
 2562 0a56 0FB6      		in		__tmp_reg__, __SREG__
 2563               	 ;  0 "" 2
 2564               	 ;  271 "FreeRTOS/Source/queue.c" 1
 2565 0a58 F894      		cli
 2566               	 ;  0 "" 2
 2567               	 ;  271 "FreeRTOS/Source/queue.c" 1
 2568 0a5a 0F92      		push	__tmp_reg__
 2569               	 ;  0 "" 2
 2570               	.LM335:
 2571               	/* #NOAPP */
 2572 0a5c EC8D      		ldd r30,Y+28
 2573 0a5e 2B8D      		ldd r18,Y+27
 2574 0a60 E29F      		mul r30,r18
 2575 0a62 C001      		movw r24,r0
 2576 0a64 1124      		clr r1
 2577               	.LVL217:
 2578 0a66 4881      		ld r20,Y
 2579 0a68 5981      		ldd r21,Y+1
 2580 0a6a 840F      		add r24,r20
 2581 0a6c 951F      		adc r25,r21
 2582 0a6e 9D83      		std Y+5,r25
 2583 0a70 8C83      		std Y+4,r24
 2584               	.LM336:
 2585 0a72 1A8E      		std Y+26,__zero_reg__
 2586               	.LM337:
 2587 0a74 5B83      		std Y+3,r21
 2588 0a76 4A83      		std Y+2,r20
 2589               	.LM338:
 2590 0a78 30E0      		ldi r19,lo8(0)
 2591 0a7a 2150      		subi r18,lo8(-(-1))
 2592 0a7c 3040      		sbci r19,hi8(-(-1))
 2593 0a7e F0E0      		ldi r31,lo8(0)
 2594 0a80 2E9F      		mul r18,r30
 2595 0a82 C001      		movw r24,r0
 2596 0a84 2F9F      		mul r18,r31
 2597 0a86 900D      		add r25,r0
 2598 0a88 3E9F      		mul r19,r30
 2599 0a8a 900D      		add r25,r0
 2600 0a8c 1124      		clr r1
 2601 0a8e 480F      		add r20,r24
 2602 0a90 591F      		adc r21,r25
 2603 0a92 5F83      		std Y+7,r21
 2604 0a94 4E83      		std Y+6,r20
 2605               	.LM339:
 2606 0a96 8FEF      		ldi r24,lo8(-1)
 2607 0a98 8D8F      		std Y+29,r24
 2608               	.LM340:
 2609 0a9a 8E8F      		std Y+30,r24
 2610               	.LM341:
 2611 0a9c 6623      		tst r22
 2612 0a9e 01F4      		brne .L153
 2613               	.LM342:
 2614 0aa0 8885      		ldd r24,Y+8
 2615 0aa2 8823      		tst r24
 2616 0aa4 01F0      		breq .L154
 2617               	.LM343:
 2618 0aa6 CE01      		movw r24,r28
 2619 0aa8 0896      		adiw r24,8
 2620 0aaa 0E94 0000 		call xTaskRemoveFromEventList
 2621               	.LVL218:
 2622 0aae 8823      		tst r24
 2623 0ab0 01F0      		breq .L154
 2624               	.LM344:
 2625 0ab2 0E94 0000 		call vPortYield
 2626 0ab6 00C0      		rjmp .L154
 2627               	.LVL219:
 2628               	.L153:
 2629               	.LM345:
 2630 0ab8 CE01      		movw r24,r28
 2631 0aba 0896      		adiw r24,8
 2632 0abc 0E94 0000 		call vListInitialise
 2633               	.LVL220:
 2634               	.LM346:
 2635 0ac0 CE01      		movw r24,r28
 2636 0ac2 4196      		adiw r24,17
 2637 0ac4 0E94 0000 		call vListInitialise
 2638               	.LVL221:
 2639               	.L154:
 2640               	.LM347:
 2641               	/* #APP */
 2642               	 ;  310 "FreeRTOS/Source/queue.c" 1
 2643 0ac8 0F90      		pop		__tmp_reg__
 2644               	 ;  0 "" 2
 2645               	 ;  310 "FreeRTOS/Source/queue.c" 1
 2646 0aca 0FBE      		out		__SREG__, __tmp_reg__
 2647               	 ;  0 "" 2
 2648               	.LM348:
 2649               	/* #NOAPP */
 2650 0acc 81E0      		ldi r24,lo8(1)
 2651               	/* epilogue start */
 2652 0ace DF91      		pop r29
 2653 0ad0 CF91      		pop r28
 2654               	.LVL222:
 2655 0ad2 0895      		ret
 2656               	.LFE2:
 2658               	.global	xQueueGenericCreate
 2660               	xQueueGenericCreate:
 2661               	.LFB3:
 2662               	.LM349:
 2663               	.LVL223:
 2664 0ad4 0F93      		push r16
 2665 0ad6 1F93      		push r17
 2666 0ad8 CF93      		push r28
 2667 0ada DF93      		push r29
 2668               	/* prologue: function */
 2669               	/* frame size = 0 */
 2670 0adc 082F      		mov r16,r24
 2671 0ade 162F      		mov r17,r22
 2672               	.LM350:
 2673 0ae0 689F      		mul r22,r24
 2674 0ae2 C001      		movw r24,r0
 2675 0ae4 1124      		clr r1
 2676               	.LVL224:
 2677 0ae6 4F96      		adiw r24,31
 2678 0ae8 0E94 0000 		call pvPortMalloc
 2679               	.LVL225:
 2680 0aec EC01      		movw r28,r24
 2681               	.LM351:
 2682 0aee 0097      		sbiw r24,0
 2683               	.LVL226:
 2684 0af0 01F0      		breq .L157
 2685               	.LBB60:
 2686               	.LBB61:
 2687               	.LM352:
 2688 0af2 1123      		tst r17
 2689 0af4 01F4      		brne .L158
 2690               	.LM353:
 2691 0af6 9983      		std Y+1,r25
 2692 0af8 8883      		st Y,r24
 2693 0afa 00C0      		rjmp .L159
 2694               	.LVL227:
 2695               	.L158:
 2696               	.LM354:
 2697 0afc 4F96      		adiw r24,31
 2698               	.LVL228:
 2699 0afe 9983      		std Y+1,r25
 2700 0b00 8883      		st Y,r24
 2701               	.LVL229:
 2702               	.L159:
 2703               	.LM355:
 2704 0b02 0B8F      		std Y+27,r16
 2705               	.LM356:
 2706 0b04 1C8F      		std Y+28,r17
 2707               	.LM357:
 2708 0b06 CE01      		movw r24,r28
 2709 0b08 61E0      		ldi r22,lo8(1)
 2710 0b0a 0E94 0000 		call xQueueGenericReset
 2711               	.LVL230:
 2712               	.L157:
 2713               	.LBE61:
 2714               	.LBE60:
 2715               	.LM358:
 2716 0b0e CE01      		movw r24,r28
 2717               	.LVL231:
 2718               	/* epilogue start */
 2719 0b10 DF91      		pop r29
 2720 0b12 CF91      		pop r28
 2721 0b14 1F91      		pop r17
 2722               	.LVL232:
 2723 0b16 0F91      		pop r16
 2724               	.LVL233:
 2725 0b18 0895      		ret
 2726               	.LFE3:
 2728               	.global	xQueueCreateCountingSemaphore
 2730               	xQueueCreateCountingSemaphore:
 2731               	.LFB7:
 2732               	.LM359:
 2733               	.LVL234:
 2734 0b1a 1F93      		push r17
 2735               	/* prologue: function */
 2736               	/* frame size = 0 */
 2737 0b1c 162F      		mov r17,r22
 2738               	.LM360:
 2739 0b1e 60E0      		ldi r22,lo8(0)
 2740               	.LVL235:
 2741 0b20 42E0      		ldi r20,lo8(2)
 2742 0b22 0E94 0000 		call xQueueGenericCreate
 2743               	.LVL236:
 2744 0b26 FC01      		movw r30,r24
 2745               	.LVL237:
 2746               	.LM361:
 2747 0b28 0097      		sbiw r24,0
 2748 0b2a 01F0      		breq .L162
 2749               	.LVL238:
 2750               	.LM362:
 2751 0b2c 128F      		std Z+26,r17
 2752               	.L162:
 2753               	.LM363:
 2754 0b2e CF01      		movw r24,r30
 2755               	.LVL239:
 2756               	/* epilogue start */
 2757 0b30 1F91      		pop r17
 2758               	.LVL240:
 2759 0b32 0895      		ret
 2760               	.LFE7:
 2762               	.global	xQueueCreateMutex
 2764               	xQueueCreateMutex:
 2765               	.LFB6:
 2766               	.LM364:
 2767               	.LVL241:
 2768 0b34 CF93      		push r28
 2769 0b36 DF93      		push r29
 2770               	/* prologue: function */
 2771               	/* frame size = 0 */
 2772 0b38 482F      		mov r20,r24
 2773               	.LM365:
 2774 0b3a 81E0      		ldi r24,lo8(1)
 2775               	.LVL242:
 2776 0b3c 60E0      		ldi r22,lo8(0)
 2777 0b3e 0E94 0000 		call xQueueGenericCreate
 2778               	.LVL243:
 2779 0b42 EC01      		movw r28,r24
 2780               	.LVL244:
 2781               	.LBB62:
 2782               	.LBB63:
 2783               	.LM366:
 2784 0b44 0097      		sbiw r24,0
 2785 0b46 01F0      		breq .L165
 2786               	.LVL245:
 2787               	.LM367:
 2788 0b48 1D82      		std Y+5,__zero_reg__
 2789 0b4a 1C82      		std Y+4,__zero_reg__
 2790               	.LM368:
 2791 0b4c 1982      		std Y+1,__zero_reg__
 2792 0b4e 1882      		st Y,__zero_reg__
 2793               	.LM369:
 2794 0b50 1E82      		std Y+6,__zero_reg__
 2795               	.LM370:
 2796 0b52 60E0      		ldi r22,lo8(0)
 2797 0b54 70E0      		ldi r23,hi8(0)
 2798 0b56 40E0      		ldi r20,lo8(0)
 2799 0b58 50E0      		ldi r21,hi8(0)
 2800 0b5a 20E0      		ldi r18,lo8(0)
 2801 0b5c 0E94 0000 		call xQueueGenericSend
 2802               	.LVL246:
 2803               	.L165:
 2804               	.LBE63:
 2805               	.LBE62:
 2806               	.LM371:
 2807 0b60 CE01      		movw r24,r28
 2808               	.LVL247:
 2809               	/* epilogue start */
 2810 0b62 DF91      		pop r29
 2811 0b64 CF91      		pop r28
 2812 0b66 0895      		ret
 2813               	.LFE6:
 3031               	.Letext0:
DEFINED SYMBOLS
                            *ABS*:00000000 queue.c
C:\Users\Aron\AppData\Local\Temp/ccjZ9Sjk.s:2      *ABS*:0000003f __SREG__
C:\Users\Aron\AppData\Local\Temp/ccjZ9Sjk.s:3      *ABS*:0000003e __SP_H__
C:\Users\Aron\AppData\Local\Temp/ccjZ9Sjk.s:4      *ABS*:0000003d __SP_L__
C:\Users\Aron\AppData\Local\Temp/ccjZ9Sjk.s:5      *ABS*:00000034 __CCP__
C:\Users\Aron\AppData\Local\Temp/ccjZ9Sjk.s:6      *ABS*:00000000 __tmp_reg__
C:\Users\Aron\AppData\Local\Temp/ccjZ9Sjk.s:7      *ABS*:00000001 __zero_reg__
C:\Users\Aron\AppData\Local\Temp/ccjZ9Sjk.s:18     .text:00000000 uxQueueMessagesWaiting
C:\Users\Aron\AppData\Local\Temp/ccjZ9Sjk.s:57     .text:00000010 uxQueueSpacesAvailable
C:\Users\Aron\AppData\Local\Temp/ccjZ9Sjk.s:97     .text:00000024 uxQueueMessagesWaitingFromISR
C:\Users\Aron\AppData\Local\Temp/ccjZ9Sjk.s:115    .text:0000002a xQueueIsQueueEmptyFromISR
C:\Users\Aron\AppData\Local\Temp/ccjZ9Sjk.s:138    .text:0000003a xQueueIsQueueFullFromISR
C:\Users\Aron\AppData\Local\Temp/ccjZ9Sjk.s:161    .text:0000004c prvCopyDataFromQueue
C:\Users\Aron\AppData\Local\Temp/ccjZ9Sjk.s:211    .text:00000088 xQueuePeekFromISR
C:\Users\Aron\AppData\Local\Temp/ccjZ9Sjk.s:255    .text:000000b2 xQueueCRReceiveFromISR
C:\Users\Aron\AppData\Local\Temp/ccjZ9Sjk.s:343    .text:00000128 prvCopyDataToQueue
C:\Users\Aron\AppData\Local\Temp/ccjZ9Sjk.s:475    .text:000001d4 xQueueCRSendFromISR
C:\Users\Aron\AppData\Local\Temp/ccjZ9Sjk.s:529    .text:00000212 xQueueCRReceive
C:\Users\Aron\AppData\Local\Temp/ccjZ9Sjk.s:665    .text:0000029c xQueueCRSend
C:\Users\Aron\AppData\Local\Temp/ccjZ9Sjk.s:806    .text:00000308 vQueueDelete
C:\Users\Aron\AppData\Local\Temp/ccjZ9Sjk.s:822    .text:0000030e xQueueReceiveFromISR
C:\Users\Aron\AppData\Local\Temp/ccjZ9Sjk.s:909    .text:0000036a xQueueGiveFromISR
C:\Users\Aron\AppData\Local\Temp/ccjZ9Sjk.s:985    .text:000003b0 xQueueGenericSendFromISR
C:\Users\Aron\AppData\Local\Temp/ccjZ9Sjk.s:1071   .text:00000410 prvUnlockQueue
C:\Users\Aron\AppData\Local\Temp/ccjZ9Sjk.s:1209   .text:00000494 xQueuePeek
C:\Users\Aron\AppData\Local\Temp/ccjZ9Sjk.s:1525   .text:000005e6 xQueueReceive
C:\Users\Aron\AppData\Local\Temp/ccjZ9Sjk.s:1838   .text:0000073c xQueueGenericSend
C:\Users\Aron\AppData\Local\Temp/ccjZ9Sjk.s:2130   .text:00000892 xQueueSemaphoreTake
C:\Users\Aron\AppData\Local\Temp/ccjZ9Sjk.s:2550   .text:00000a50 xQueueGenericReset
C:\Users\Aron\AppData\Local\Temp/ccjZ9Sjk.s:2660   .text:00000ad4 xQueueGenericCreate
C:\Users\Aron\AppData\Local\Temp/ccjZ9Sjk.s:2730   .text:00000b1a xQueueCreateCountingSemaphore
C:\Users\Aron\AppData\Local\Temp/ccjZ9Sjk.s:2764   .text:00000b34 xQueueCreateMutex

UNDEFINED SYMBOLS
memcpy
xCoRoutineRemoveFromEventList
xTaskPriorityDisinherit
vCoRoutineAddToDelayedList
vPortFree
xTaskRemoveFromEventList
vTaskMissedYield
vPortYield
vTaskInternalSetTimeOutState
vTaskSuspendAll
xTaskCheckForTimeOut
vTaskPlaceOnEventList
xTaskResumeAll
pvTaskIncrementMutexHeldCount
xTaskPriorityInherit
vTaskPriorityDisinheritAfterTimeout
vListInitialise
pvPortMalloc
